(lp0
S'http://localhost:9000/'
p1
aS'http://192.168.1.75/'
p2
aS'http://192.168.1.75/videostream.cgi?user=moca&pwd=b0n3h3ad'
p3
aS'http://localhost:8080/'
p4
aS'http://localhost:7474/'
p5
aS'http://192.168.1.75/'
p6
aS'http://yonik.com/solr-tutorial/'
p7
aS'http://campi.local:8090/login'
p8
aS'http://neo4j.com/docs/stable/query-set.html'
p9
aS'http://www.networkupstools.org/download.html'
p10
aS'https://mahout.apache.org/users/basics/creating-vectors-from-text.html'
p11
aS'http://localhost:8983/solr/#/dkb_shard1_replica1/query'
p12
aS'http://localhost:8983/solr/'
p13
aS'http://djangotricks.blogspot.com/2009/10/weather-app-tutorial-part-5-of-5-graph.html'
p14
aS'http://www.networkupstools.org/download.html'
p15
aS'https://realpython.com/blog/python/web-scraping-with-scrapy-and-mongodb/'
p16
aS'http://localhost:631/jobs/'
p17
aS'http://www.diamondmm.com/tvw750usb-diamond-hd-usb-tv-tuner.html'
p18
aS'http://192.168.100.1/'
p19
aS'http://localhost:8090/0/config/list'
p20
aS'http://heat.wq.lc/#'
p21
aS'http://www.tutorialspoint.com//angularjs/index.htm'
p22
aS'https://angularjs.org/'
p23
aS'https://github.com/jay3dec/AngularEveApp_Part1'
p24
aS'http://code.tutsplus.com/tutorials/build-an-angularjs-app-from-scratch-powered-by-python-eve--cms-23063'
p25
aS'http://thegeekzum.com/angularjs-tutorials/'
p26
aS'https://www.adafruit.com/products/1501'
p27
aS'https://learn.adafruit.com/usbtinyisp/avrdude'
p28
aS'https://www.adafruit.com/products/264'
p29
aS'HTTPS Credential Caching and SSH Keys | An Introduction to Collaborating with Version Control | Adafruit Learning System'
p30
aS'https://learn.adafruit.com/an-introduction-to-collaborating-with-version-control/https-credential-caching-and-ssh-keys'
p31
aS'https://learn.adafruit.com/adafruit-microphone-amplifier-breakout/measuring-sound-levels'
p32
aS'https://learn.adafruit.com/adxl345-digital-accelerometer'
p33
aS'https://learn.adafruit.com/mcp4725-12-bit-dac-with-raspberry-pi'
p34
aS'https://learn.adafruit.com/pro-trinket-power-meter'
p35
aS'https://learn.adafruit.com/piccolo'
p36
aS'https://learn.adafruit.com/program-an-avr-or-arduino-using-raspberry-pi-gpio-pins/programming'
p37
aS'https://learn.adafruit.com/reading-a-analog-in-and-controlling-audio-volume-with-the-raspberry-pi/connecting-the-cobbler-to-a-mcp3008'
p38
aS'https://learn.adafruit.com/node-embedded-development/connecting-via-ssh'
p39
aS'https://learn.adafruit.com/node-embedded-development/events'
p40
aS'https://learn.adafruit.com/mcp230xx-gpio-expander-on-the-raspberry-pi/hooking-it-all-up'
p41
aS'https://learn.adafruit.com/webide/installation'
p42
aS'https://learn.adafruit.com/geofencing-with-the-fona-808-and-adafruit-io'
p43
aS'https://learn.adafruit.com/adafruit-microphone-amplifier-breakout/more-cool-projects'
p44
aS'https://learn.adafruit.com/adafruit-tmp007-sensor-breakout'
p45
aS'https://learn.adafruit.com/webide/overview'
p46
aS'https://learn.adafruit.com/fft-fun-with-fourier-transforms'
p47
aS'https://learn.adafruit.com/kali-linux-on-the-raspberry-pi-with-the-pitft/overview'
p48
aS'https://learn.adafruit.com/pibeacon-ibeacon-with-a-raspberry-pi'
p49
aS'https://learn.adafruit.com/character-lcd-with-raspberry-pi-or-beaglebone-black/wiring'
p50
aS'https://learn.adafruit.com/adafruit-micro-sd-breakout-board-card-tutorial/library'
p51
aS'https://learn.adafruit.com/adafruit-data-logger-shield/using-the-real-time-clock-1'
p52
aS'https://learn.adafruit.com/feed'
p53
aS'https://learn.adafruit.com/feed'
p54
aS'https://learn.adafruit.com/category/learn-arduino'
p55
aS'https://dzone.com/refcardz'
p56
aS'http://www.dzone.com/links/r/10_best_google_chrome_extensions_for_web_develope.html'
p57
aS'http://www.dzone.com/links/r/best_jquery_plugins_of_the_week_14th_june_20th_ju.html'
p58
aS'http://refcardz.dzone.com/'
p59
aS'http://www.dzone.com/links/r/architecture_of_jvm_with_diagram_tutorial.html'
p60
aS'https://dzone.com/articles/23-lessons-from-10-highly-successful-developers?utm_medium=feed&amp;utm_source=feedpress.me&amp;utm_campaign=Feed:%20dzone'
p61
aS'http://www.dzone.com/links/r/the_need_for_timezone_awareness.html'
p62
aS'http://i-saddle.com/en/isaddle-super-mini-bluetooth-obd2-obdii-scan-tool-check-engine-light-can-bus-auto-diagnostic-tool-for-windows-android-torque'
p63
aS'https://www.initialstate.com/?gclid=CKCxgNasjMkCFRMjgQodLIEKsQ'
p64
aS'https://souvik.me/blog/picard-a-raspberry-pi-based-obd-ii-data-logging-system'
p65
aS'http://git-scm.com/book/en/Git-Basics-Recording-Changes-to-the-Repository'
p66
aS'https://github.com/ccrisan/motioneye/wiki/Compiling-Motion'
p67
aS'https://github.com/relayr/wunderbar-hardware'
p68
aS'https://github.com/shimon/djangotutorial'
p69
aS'https://github.com/marc-lorber/oregano'
p70
aS'https://github.com/quatanium/foscam-python-lib'
p71
aS'https://github.com/bngesp/foscam-with-python/blob/master/foscam.py'
p72
aS'https://github.com/DavidStreid/d3_GenSim'
p73
aS'https://github.com/bngesp/foscam-with-python'
p74
aS'https://github.com/Pbartek/pyobd-pi'
p75
aS'https://github.com/ryansb/wut4lunch_demos'
p76
aS'https://github.com/sandinmyjoints/visularity'
p77
aS'https://github.com/scikit-learn'
p78
aS'https://github.com/mbostock/d3/wiki/CSV'
p79
aS'https://gist.github.com/d3noob/4414436'
p80
aS'https://github.com/timbroder/django-solr-demo'
p81
aS'https://github.com/johnpapa/ng-demos'
p82
aS'https://thinkster.io/django-angularjs-tutorial'
p83
aS'http://gojs.net/latest/learn/index.html'
p84
aS'http://gojs.net/latest/index.html?gclid=CJu2lv7hpcwCFVUkgQod9ZwANg'
p85
aS'http://www.learn-js.org/'
p86
aS'http://rest.elkstein.org/2008/02/using-rest-in-python.html'
p87
aS'http://www.tutorialspoint.com/json/'
p88
aS'https://angular.io/styleguide'
p89
aS'https://developers.google.com/apps-script/articles'
p90
aS'http://gojs.net/latest/index.html?gclid=CIHp94yQxckCFdcWgQodwwQDUQ'
p91
aS'http://gojs.net/latest/index.html?gclid=CKn8_uW8gMwCFQkyaQodvnsFjQ'
p92
aS'http://scikit-learn.org/stable/auto_examples/index.html'
p93
aS'http://scikit-learn.org/stable/tutorial/basic/tutorial.html'
p94
aS'https://code.google.com/p/pytesseracttrainer/'
p95
aS'http://www.vladsandulescu.com/topic-prediction-lda-user-reviews/'
p96
aS'https://developer.ibm.com/open/systemml/'
p97
aS'https://docs.mongodb.org/manual/tutorial/manage-users-and-roles/'
p98
aS'http://altons.github.io/python/2013/01/21/gentle-introduction-to-mongodb-using-pymongo/'
p99
aS'http://api.mongodb.org/python/current/index.html'
p100
aS'https://codepicnic.com/posts/feature-friday-a-new-way-to-store-your-data-with-mongodb-045117b0e0a11a242b9765e79cbf113f/?utm_source=facebook&utm_medium=blog&utm_term=codepicnic+mongodb&utm_campaign=codepicnic_features_201506'
p101
aS'http://en.m.wikipedia.org/wiki/Node.js'
p102
aS'http://blog.atom.io/2016/03/17/atom-1-6-and-1-7-beta.html'
p103
aS'https://www.npmjs.com/package/brickpi'
p104
aS'https://code.visualstudio.com/download'
p105
aS'https://github.com/achingbrain/brickpi'
p106
aS'https://learn.adafruit.com/node-embedded-development/installing-node-dot-js'
p107
aS'https://plugins.jetbrains.com/plugin/6098?pr=idea'
p108
aS'https://code.visualstudio.com/docs/runtimes/nodejs'
p109
aS'http://www.tutorialspoint.com/nodejs/'
p110
aS'http://www.nodeclipse.org/'
p111
aS'https://code.visualstudio.com/Docs/editor/setup'
p112
aS'https://code.visualstudio.com/docs/editor/codebasics#_launching-from-the-command-line'
p113
aS'http://codecondo.com/best-ide-for-node-js/'
p114
aS'https://marketplace.visualstudio.com/items?itemName=dkundel.vscode-npm-source'
p115
aS'http://www.dofactory.com/reference/visual-studio-shortcuts'
p116
aS'https://code.visualstudio.com/start'
p117
aS'http://nodeschool.io/'
p118
aS'https://nodejs.org/en/'
p119
aS'https://realpython.com/blog/python/face-recognition-with-python/'
p120
aS'http://opencv-python-tutroals.readthedocs.org/en/latest/py_tutorials/py_gui/py_video_display/py_video_display.html'
p121
aS'https://realpython.com/blog/python/face-detection-in-python-using-a-webcam/'
p122
aS'http://note.sonots.com/SciSoftware/haartraining.html'
p123
aS'http://people.csail.mit.edu/sparis/bf_course/'
p124
aS'http://docs.opencv.org/3.1.0/da/d60/tutorial_face_main.html#gsc.tab=0'
p125
aS'http://www.face-rec.org/databases/'
p126
aS'http://docs.opencv.org/3.1.0/d9/df8/tutorial_root.html#gsc.tab=0'
p127
aS'https://code.djangoproject.com/wiki/Tutorials'
p128
aS'https://realpython.com/courses/'
p129
aS'http://api.mongodb.org/python/current/tutorial.html'
p130
aS'https://code.djangoproject.com/wiki/DjangoCheatSheet'
p131
aS'http://pawelmhm.github.io/python/pyqt/qt/webkit/2015/09/08/browser.html'
p132
aS'http://williamjohnbert.com/2012/03/how-to-install-accelerated-blas-into-a-python-virtualenv/'
p133
aS'http://django-angular.readthedocs.org/en/latest/installation.html'
p134
aS'https://developers.google.com/apps-script/guides/rest/quickstart/python'
p135
aS'https://developers.google.com/admin-sdk/directory/v1/quickstart/python#prerequisites'
p136
aS'http://www.pythoncentral.io/python-unicode-encode-decode-strings-python-2x/'
p137
aS'https://docs.google.com/document/d/1S0Tntsn8TBw_PbFr5T-uLCBtRL8NLD75Ap_1jmrSg7k/mobilebasic'
p138
aS'https://pythonhosted.org/Pyro4/'
p139
aS'http://flask.pocoo.org/docs/0.10/patterns/deferredcallbacks/#deferred-callbacks'
p140
aS'http://werkzeug.pocoo.org/'
p141
aS'https://signup.heroku.com/dc'
p142
aS'https://docs.djangoproject.com/en/1.9/'
p143
aS'https://github.com/alex-sherman/deco'
p144
aS'https://pythonhosted.org/Pyro4/tutorials.html'
p145
aS'http://docs.python-guide.org/en/latest/'
p146
aS'http://flask.pocoo.org/docs/0.10/quickstart/#static-files'
p147
aS'https://docs.python.org/2/library/stdtypes.html#dict'
p148
aS'http://netduinohacking.blogspot.com/2011/09/open-close-garage-door-with-your.html'
p149
aS'http://www.prodigyproductionsllc.com/articles/automation/insteon-foscam-ip-camera-face-recognition-with-python-and-raspberry-pi/'
p150
aS'http://www.tutorialspoint.com/index.htm'
p151
aS'http://www.tutorialspoint.com//apache_spark/index.htm'
p152
aS'http://www.tutorialspoint.com/django/django_apache_setup.htm'
p153
aS'http://www.tutorialspoint.com/drools/drools_introduction.htm'
p154
aS'http://www.tutorialspoint.com/google_maps/index.htm'
p155
aS'http://www.tutorialspoint.com/scala/'
p156
aS'http://www.tutorialspoint.com/hadoop/hadoop_big_data_overview.htm'
p157
aS'http://www.tutorialspoint.com/jasper_reports/jasper_environment_setup.htm'
p158
aS'http://www.tutorialspoint.com/json/index.htm'
p159
aS'http://www.tutorialspoint.com/management_concepts/prince2_project_methodology.htm'
p160
aS'http://www.tutorialspoint.com/vba/index.htm'
p161
aS'http://www.tutorialspoint.com/mongodb/index.htm'
p162
aS'http://www.tutorialspoint.com/sqlite/index.htm'
p163
aS'http://www.tutorialspoint.com/sqlite/sqlite_insert_query.htm'
p164
aS'http://www.tutorialspoint.com/tika/tika_extracting_html_document.htm'
p165
aS'http://www.tutorialspoint.com/python/python_command_line_arguments.htm'
p166
aS'http://www.tutorialspoint.com/python/python_dictionary.htm'
p167
aS'http://www.tutorialspoint.com/python/python_files_io.htm'
p168
aS'http://www.tutorialspoint.com/unix_commands/fbset.htm'
p169
aS'http://www.tutorialspoint.com/unix_commands/service.htm'
p170
aS'http://www.tutorialspoint.com/unix/index.htm'
p171
aS'http://www.tutorialspoint.com/listtutorials/linux/1'
p172
aS'http://www.tutorialspoint.com/unix_commands/mkinitrd.htm'
p173
aS'http://www.tutorialspoint.com/html5/html5_websocket.htm'
p174
aS'http://www.tutorialspoint.com/compiler_design/index.htm'
p175
aS'http://www.tutorialspoint.com/digital_signal_processing/index.htm'
p176
aS'http://www.tutorialspoint.com/object_oriented_analysis_design/ooad_object_oriented_paradigm.htm'
p177
aS'http://www.tutorialspoint.com/grav/grav_forms.htm'
p178
aS'http://bashrcgenerator.com/'
p179
aS'http://www.w3schools.com/angular/default.asp'
p180
aS'http://www.w3.org/TR/SVG/types.html#ColorKeywords'
p181
aS'http://getbootstrap.com/'
p182
aS'http://www.w3schools.com/bootstrap/default.asp'
p183
aS'http://www.w3schools.com/bootstrap/bootstrap_images.asp'
p184
aS'http://www.w3schools.com/css/default.asp'
p185
aS'http://www.w3schools.com/html/default.asp'
p186
aS'http://www.w3schools.com/charsets/ref_html_utf8.asp'
p187
aS'http://www.w3schools.com/jsref/default.asp'
p188
aS'http://www.w3schools.com/js/js_functions.asp'
p189
aS'http://www.w3schools.com/js/default.asp'
p190
aS'http://jquery.com/'
p191
aS'http://www.w3schools.com/jquery/jquery_ajax_load.asp'
p192
aS'https://jquery.org/'
p193
aS'http://www.w3schools.com/jquery/jquery_ref_selectors.asp'
p194
aS'http://www.w3schools.com/jquery/default.asp'
p195
aS'http://l0pht.com/'
p196
aS'http://jsbeautifier.org/'
p197
aS'http://www.w3schools.com/jquery/trysel.asp'
p198
aS'http://www.daveliepmann.com/tufte-css/'
p199
aS'https://nodejs.org/documentation/tutorials/'
p200
aS'http://www.w3schools.com/'
p201
aS'https://developers.google.com/web/fundamentals/'
p202
aS'http://www.w3schools.com/xpath/xpath_examples.asp'
p203
aS'http://www.w3schools.com/xsl/xpath_intro.asp'
p204
aS'https://github.com/Darth-Neo/'
p205
aS'http://www.tutorialspoint.com/index.htm'
p206
aS'http://www.tecmint.com/best-free-open-source-softwares-of-2015/'
p207
aS'http://code.tutsplus.com/tutorials/building-rest-apis-using-eve--cms-22961'
p208
aS'https://rob-bell.net/2009/06/a-beginners-guide-to-big-o-notation/'
p209
aS'https://developers.google.com/api-client-library/python/'
p210
aS'http://www.media.mit.edu/pia/Research/deepview/exif.html'
p211
aS'http://dublincore.org/documents/dcq-html/'
p212
aS'http://wiki.apache.org/nutch/#Tutorials'
p213
aS'https://code.google.com/archive/p/foscam-with-python/'
p214
aS'http://graphene-python.org/'
p215
aS'http://scraping.pro/5-best-xpath-cheat-sheets-and-quick-references/'
p216
aS'http://xpath.alephzarro.com/content/cheatsheet.html'
p217
aS'http://code.runnable.com/UiIdhKohv5JQAAB6/how-to-download-a-file-generated-on-the-fly-in-flask-for-python'
p218
aS'http://python-eve.org/'
p219
aS'http://www.w3.org/Protocols/HTTP/HTRESP.html'
p220
aS'http://www.thegeekstuff.com/'
p221
aS'https://www.webkit.org/'
p222
aS'http://adilmoujahid.com/posts/2015/01/interactive-data-visualization-d3-dc-python-mongodb/'
p223
aS'http://code.tutsplus.com/tutorials/data-visualization-app-using-gae-python-d3js-and-google-bigquery-part-2--cms-22467'
p224
aS'http://www.dabeaz.com/ply/ply.html#ply_nn1'
p225
aS'http://dilbert.com/'
p226
aS'https://news.google.com/nwshp?hl=en&tab=wn#pcid=FRONTPAGE'
p227
aS'http://www.drudgereport.com/'
p228
aS'https://news.ycombinator.com/'
p229
aS'http://www.nationalreview.com/'
p230
aS'http://www.foxnews.com/'
p231
aS'http://www.gethooksapp.com/#channels'
p232
aS'http://www.realclearpolitics.com/'
p233
aS'http://www.prisonplanet.com/'
p234
aS'http://davidstockmanscontracorner.com/'
p235
aS'http://dailycaller.com/?vp=8'
p236
aS'http://www.breitbart.com/'
p237
aS'http://canadafreepress.com/index.php/mobile'
p238
aS'https://www.commentarymagazine.com/'
p239
aS'http://theeconomiccollapseblog.com/'
p240
aS'http://thehill.com/'
p241
aS'http://townhall.com/'
p242
aS'http://www.theverge.com/'
p243
aS'http://www.thedailybeast.com/'
p244
aS'http://spectator.org/'
p245
aS'http://www.shtfplan.com/'
p246
aS'http://themostimportantnews.com/'
p247
aS'http://www.politico.com/magazine/index.html#superLatest'
p248
aS'http://popurls.com/'
p249
aS'http://recode.net/'
p250
aS'http://www.rt.com/'
p251
aS'http://sputniknews.com/'
p252
aS'http://thefederalist.com/'
p253
aS'https://firstlook.org/theintercept/'
p254
aS'http://www.truthrevolt.org/'
p255
aS'http://www.wftv.com/'
p256
aS'http://www.wnd.com/'
p257
aS'https://www.yahoo.com/'
p258
aS'http://www.politico.com/'
p259
aS'http://www.google.com/trends/topcharts#geo=US'
p260
aS'http://www.google.com/trends/'
p261
aS'http://www.sys-con.com/'
p262
aS'http://pawelmhm.github.io/'
p263
aS'https://stratechery.com/2016/apples-organizational-crossroads/'
p264
aS'http://wolfstreet.com/'
p265
aS'https://bay174.mail.live.com/default.aspx'
p266
aS'https://mail.google.com/mail/u/0/#inbox'
p267
aS'https://www.adafruit.com/products/358'
p268
aS'https://learn.adafruit.com/raspipe-a-raspberry-pi-pipeline-viewer-part-2/miniature-web-applications-in-python-with-flask'
p269
aS'http://www.adafruit.com/'
p270
aS'https://learn.adafruit.com/'
p271
aS'https://www.adafruit.com/products/1501'
p272
aS'https://learn.adafruit.com/adafruit-arduino-ide-setup/arduino-1-dot-6-x-ide'
p273
aS'https://learn.adafruit.com/usbtinyisp/avrdude'
p274
aS'https://www.adafruit.com/products/2267'
p275
aS'http://www.adafruit.com/circuitplayground'
p276
aS'https://www.adafruit.com/products/1713'
p277
aS'https://learn.adafruit.com/adafruit-pitft-3-dot-5-touch-screen-for-raspberry-pi/faq'
p278
aS'https://learn.adafruit.com/how-to-get-added-to-the-adafruit-google-plus-show-and-tell-circle/get-added'
p279
aS'https://learn.adafruit.com/google-physical-web-uribeacon-with-the-bluefruit-le-friend'
p280
aS'https://learn.adafruit.com/drive-a-16x2-lcd-directly-with-a-raspberry-pi/init-script'
p281
aS'https://learn.adafruit.com/magic-band-teardown'
p282
aS'https://learn.adafruit.com/freq-show-raspberry-pi-rtl-sdr-scanner/installation'
p283
aS'https://learn.adafruit.com/adafruit-ultimate-gps-on-the-raspberry-pi'
p284
aS'https://learn.adafruit.com/introducing-the-adafruit-bluefruit-le-sniffer'
p285
aS'https://learn.adafruit.com/introduction-to-bluetooth-low-energy'
p286
aS'https://learn.adafruit.com/raspberry-pi-spectrum-analyzer-display-on-rgb-led-strip'
p287
aS'https://learn.adafruit.com/adafruit-raspberry-pi-lesson-9-controlling-a-dc-motor/lm293d'
p288
aS'https://www.adafruit.com/products/732'
p289
aS'https://learn.adafruit.com/drive-a-16x2-lcd-directly-with-a-raspberry-pi/necessary-packages'
p290
aS'https://learn.adafruit.com/adafruit-agc-electret-microphone-amplifier-max9814'
p291
aS'https://learn.adafruit.com/adafruit-arduino-ide-setup'
p292
aS'https://learn.adafruit.com/adafruit-fona-mini-gsm-gprs-cellular-phone-module'
p293
aS'https://learn.adafruit.com/adafruit-microphone-amplifier-breakout'
p294
aS'https://learn.adafruit.com/adafruit-optical-fingerprint-sensor'
p295
aS'https://learn.adafruit.com/adafruit-pitft-3-dot-5-touch-screen-for-raspberry-pi'
p296
aS'https://learn.adafruit.com/webide'
p297
aS'https://learn.adafruit.com/adafruits-raspberry-pi-lesson-5-using-a-console-cable'
p298
aS'https://learn.adafruit.com/adding-basic-audio-ouput-to-raspberry-pi-zero'
p299
aS'https://learn.adafruit.com/all-about-leds'
p300
aS'https://learn.adafruit.com/reading-a-analog-in-and-controlling-audio-volume-with-the-raspberry-pi'
p301
aS'https://learn.adafruit.com/bonjour-zeroconf-networking-for-windows-and-linux'
p302
aS'https://learn.adafruit.com/character-lcd-with-raspberry-pi-or-beaglebone-black'
p303
aS'https://learn.adafruit.com/character-lcds'
p304
aS'https://learn.adafruit.com/dht-humidity-sensing-on-raspberry-pi-with-gdocs-logging'
p305
aS'https://learn.adafruit.com/drive-a-16x2-lcd-directly-with-a-raspberry-pi'
p306
aS'https://learn.adafruit.com/embedded-linux-board-comparison'
p307
aS'https://learn.adafruit.com/fft-fun-with-fourier-transforms'
p308
aS'https://learn.adafruit.com/freq-show-raspberry-pi-rtl-sdr-scanner#'
p309
aS'https://learn.adafruit.com/getting-started-with-rtl-sdr-and-sdr-sharp'
p310
aS'https://learn.adafruit.com/how-to-start-a-hackerspace-money'
p311
aS'https://learn.adafruit.com/i2c-spi-lcd-backpack'
p312
aS'https://learn.adafruit.com/kali-linux-on-the-raspberry-pi-with-the-pitft'
p313
aS'https://learn.adafruit.com/matrix-7-segment-led-backpack-with-the-raspberry-pi'
p314
aS'https://learn.adafruit.com/mcp230xx-gpio-expander-on-the-raspberry-pi'
p315
aS'https://learn.adafruit.com/mcp4725-12-bit-dac-tutorial'
p316
aS'https://learn.adafruit.com/mcp4725-12-bit-dac-with-raspberry-pi'
p317
aS'https://learn.adafruit.com/mqtt-adafruit-io-and-you'
p318
aS'https://learn.adafruit.com/pibeacon-ibeacon-with-a-raspberry-pi'
p319
aS'https://learn.adafruit.com/playing-sounds-and-using-buttons-with-raspberry-pi'
p320
aS'https://learn.adafruit.com/raspberry-pi-face-recognition-treasure-box'
p321
aS'https://learn.adafruit.com/raspberry-pi-garage-door-opener'
p322
aS'https://learn.adafruit.com/raspberry-pi-radio-player-with-touchscreen'
p323
aS'https://learn.adafruit.com/retro-gaming-with-raspberry-pi'
p324
aS'https://learn.adafruit.com/rgb-lcd-shield'
p325
aS'https://learn.adafruit.com/setting-up-a-raspberry-pi-as-a-wifi-access-point'
p326
aS'https://learn.adafruit.com/tlc5947-tlc59711-pwm-led-driver-breakout'
p327
aS'https://learn.adafruit.com/trinket-bluetooth-alarm-system'
p328
aS'https://learn.adafruit.com/trinket-rgb-shield-clock'
p329
aS'https://learn.adafruit.com/ttl-serial-camera'
p330
aS'https://learn.adafruit.com/usb-plus-serial-backpack'
p331
aS'https://learn.adafruit.com/xbee-radios'
p332
aS'https://learn.adafruit.com/pixy-pet-robot-color-vision-follower-using-pixycam#'
p333
aS'https://learn.adafruit.com/adding-basic-audio-ouput-to-raspberry-pi-zero/pi-zero-pwm-audio'
p334
aS'https://www.adafruit.com/products/1601'
p335
aS'https://learn.adafruit.com/pi-video-output-using-pygame/pointing-pygame-to-the-framebuffer'
p336
aS'https://www.adafruit.com/products/1367?gclid=CJ6pr-qo3MgCFdgOgQodo8QL-Q'
p337
aS'https://www.adafruit.com/products/1567'
p338
aS'https://learn.adafruit.com/adafruit-arduino-selection-guide'
p339
aS'https://learn.adafruit.com/pibeacon-ibeacon-with-a-raspberry-pi/setting-up-the-pi'
p340
aS'https://learn.adafruit.com/adafruits-raspberry-pi-lesson-3-network-setup/setting-up-wifi-with-occidentalis'
p341
aS'https://learn.adafruit.com/adafruits-raspberry-pi-lesson-12-sensing-movement/software'
p342
aS'https://learn.adafruit.com/adafruits-raspberry-pi-lesson-12-sensing-movement/software'
p343
aS'https://learn.adafruit.com/raspberry-pi-face-recognition-treasure-box/software'
p344
aS'https://learn.adafruit.com/adafruit-2-dot-8-color-tft-touchscreen-breakout-v2/spi-wiring'
p345
aS'https://learn.adafruit.com/introducing-adafruit-ble-bluetooth-low-energy-friend/standard-at'
p346
aS'https://learn.adafruit.com/adafruits-raspberry-pi-lesson-5-using-a-console-cable/test-and-configure'
p347
aS'https://learn.adafruit.com/google-glass-talks-to-raspberry-pi-with-xmpp'
p348
aS'https://learn.adafruit.com/node-embedded-development'
p349
aS'https://learn.adafruit.com/user-space-spi-tft-python-library-ili9341-2-8/wiring'
p350
aS'https://www.adafruit.com/products/2269'
p351
aS'https://learn.adafruit.com/adafruits-raspberry-pi-lesson-4-gpio-setup/configuring-i2c'
p352
aS'https://learn.adafruit.com/introducing-the-adafruit-bluefruit-le-sniffer'
p353
aS'https://learn.adafruit.com/kali-linux-on-the-raspberry-pi-with-the-pitft'
p354
aS'https://learn.adafruit.com/xbee-radios'
p355
aS'https://www.adafruit.com/products/1601'
p356
aS'https://learn.adafruit.com/introducing-the-raspberry-pi-model-b-plus-plus-differences-vs-model-b/power-supply'
p357
aS'https://www.adafruit.com/products/1567'
p358
aS'https://learn.adafruit.com/adafruits-raspberry-pi-lesson-5-using-a-console-cable/test-and-configure'
p359
aS'https://learn.adafruit.com/adafruit-pitft-3-dot-5-touch-screen-for-raspberry-pi/faq'
p360
aS'https://www.adafruit.com/categories/279'
p361
aS'http://openmicros.org/index.php/articles/94-ciseco-product-documentation/raspberry-pi/217-getting-started-with-raspberry-pi-gpio-and-python'
p362
aS'https://learn.adafruit.com/raspipe-a-raspberry-pi-pipeline-viewer-part-2/miniature-web-applications-in-python-with-flask'
p363
aS'https://learn.adafruit.com/ds1307-real-time-clock-breakout-board-kit/parts-list'
p364
aS'https://learn.adafruit.com/an-introduction-to-collaborating-with-version-control'
p365
aS'http://avrhelp.mcselec.com/index.html?isp_programmer.htm'
p366
aS'http://www.datasheetspdf.com/datasheet/STK300.html'
p367
aS'https://forums.adafruit.com/viewtopic.php?f=20&t=26252'
p368
aS'http://www.amazon.co.uk/Kanda-STK300-Board-Atmega128-Microcontrollers/dp/B004472F8A'
p369
aS'https://sourceware.org/gdb/current/onlinedocs/gdb/'
p370
aS'https://pdos.csail.mit.edu/6.828/2014/overview.html'
p371
aS'http://wiki.qemu.org/Main_Page'
p372
aS'https://pdos.csail.mit.edu/6.828/2014/labguide.html'
p373
aS'https://github.com/AD-Vega/rtl-power-fftw'
p374
aS'https://github.com/adafruit'
p375
aS'https://github.com/adafruit/adafruit-pi-cam'
p376
aS'https://github.com/adafruit/Adafruit-PiTFT-Helper'
p377
aS'https://github.com/adafruit/toolchain-avr'
p378
aS'https://github.com/DSheirer/sdrtrunk/wiki/APCO25'
p379
aS'https://github.com/argilo'
p380
aS'https://github.com/asdil12/pymultimonaprs'
p381
aS'https://github.com/ati/heatmap'
p382
aS'https://github.com/bemasher/rtlamr'
p383
aS'https://gist.github.com/tito/7432757'
p384
aS'https://github.com/notro/fbtft/wiki/Boot-console'
p385
aS'https://github.com/climberhunt/PiPhone'
p386
aS'https://github.com/covertcodes/freqwatch'
p387
aS'https://github.com/DexterInd/ArduBerry'
p388
aS'https://github.com/DexterInd/BrickPi'
p389
aS'https://github.com/dl1ksv'
p390
aS'https://github.com/dl1ksv/gr-ax25'
p391
aS'https://github.com/EarToEarOak/RTLSDR-Scanner'
p392
aS'https://github.com/arvydas/blinkstick-python/wiki/Example:-MQTT'
p393
aS'https://github.com/raspberrypi/firmware/tree/master/boot'
p394
aS'https://github.com/DSheirer/sdrtrunk/wiki/GettingStarted'
p395
aS'https://github.com/gioblu/PJON_ASK'
p396
aS'https://github.com/rm-hull/max7219'
p397
aS'https://github.com/notro/fbtft/wiki'
p398
aS'https://gist.github.com/coolaj86/1318304'
p399
aS'https://github.com/johnlane/rpi-utils'
p400
aS'https://github.com/keenerd/rtlsdr-waterfall'
p401
aS'https://github.com/marmelo/gqrx-remote'
p402
aS'https://github.com/mewrev/dissection'
p403
aS'https://github.com/microtony/RTLSDR-Airband'
p404
aS'https://github.com/raspberrypi/linux/issues/280'
p405
aS'https://github.com/mwilliams03/Raspberry-Gyro-Acc'
p406
aS'https://github.com/N0NB/hamlib'
p407
aS'https://github.com/notro/fbtft'
p408
aS'https://github.com/openhomeautomation/rpi-web-control'
p409
aS'https://github.com/pageauc/pi-timolo'
p410
aS'https://github.com/ptrkrysik/gr-gsm'
p411
aS'https://github.com/quick2wire/quick2wire-python-api'
p412
aS'https://github.com/raspberrypi'
p413
aS'https://github.com/adafruit/Adafruit-Pi-Finder/releases/tag/v2.0.1-beta'
p414
aS'https://github.com/rossengeorgiev/aprs-python'
p415
aS'https://code.google.com/p/sdrtrunk/'
p416
aS'https://github.com/simonmonk/raspberrypi_cookbook'
p417
aS'https://github.com/sparkfun'
p418
aS'https://github.com/th0ma5w/rtl_fm_python'
p419
aS'https://github.com/DSheirer/sdrtrunk/wiki/UserManual'
p420
aS'https://github.com/ve3wwg/raspberry_pi'
p421
aS'https://code.google.com/p/ddp/'
p422
aS'https://code.google.com/p/ddv/'
p423
aS'https://code.google.com/p/ps3-controlled-radio-car/'
p424
aS'https://code.google.com/p/pyo/'
p425
aS'https://code.google.com/p/qtsdr/'
p426
aS'https://code.google.com/p/radiochronicle/'
p427
aS'https://code.google.com/p/sdrsharp/'
p428
aS'http://code.google.com/p/nxt-python/source/browse/trunk/nxt/sensor.py?r=20'
p429
aS'https://code.google.com/p/softradio/source/checkout'
p430
aS'http://www.gamersnexus.net/guides/799-understanding-chipsets-what-is-a-chipset'
p431
aS'http://www.gamersnexus.net/guides/1229-anatomy-of-a-motherboard-what-is-a-vrm-mosfet'
p432
aS'http://m.tomshardware.com/'
p433
aS'https://www.andyjeffries.co.uk/25-tips-for-intermediate-git-users/'
p434
aS'http://www.dexterindustries.com/BrickPi/getting-started/attaching-lego/'
p435
aS'http://wiki.complete.org/AmateurRadio'
p436
aS'http://www.ece.uvic.ca/~elec350/grc_doc/ar01s05s03.html'
p437
aS'http://www.ladyada.net/learn/avr/setup-unix.html'
p438
aS'http://www.brickshelf.com/cgi-bin/gallery.cgi?i=4056414'
p439
aS'http://www.rowetel.com/blog/?page_id=452'
p440
aS'http://www.radio-electronics.com/info/broadcast/dab/dab_frequencies.php'
p441
aS'http://dangerousprototypes.com/tag/rtl-sdr/'
p442
aS'https://code.google.com/p/ddp/'
p443
aS'https://code.google.com/p/ddv/'
p444
aS'http://en.m.wikipedia.org/wiki/DBi#Antenna_measurements'
p445
aS'http://marcinkowski.ca/blog/2014/02/21/decoding-dmr-part-2-pulseaudio-null-sink'
p446
aS'https://github.com/DexterInd/BrickPi'
p447
aS'http://www.rtl-sdr.com/dsd-version-1-5-released/'
p448
aS'http://electronics.stackexchange.com/'
p449
aS'http://www.dummies.com/how-to/content/electronics-schematics-commonly-used-symbols-and-l.html'
p450
aS'http://www.w1hkj.com/Fldigi.html'
p451
aS'http://www.dexterindustries.com/BrickPi/getting-started/'
p452
aS'https://learn.sparkfun.com/tutorials/getting-started-with-the-brickpi'
p453
aS'http://gnuradio.squarespace.com/examples'
p454
aS'http://sdr.osmocom.org/trac/wiki/GrOsmoSDR'
p455
aS'http://www.hitechnic.com/'
p456
aS'https://gist.github.com/coolaj86/1318304'
p457
aS'http://www.dexterindustries.com/howto/'
p458
aS'http://www.tau.ac.il/~stoledo/lego/i2c-8574/'
p459
aS'https://gnuradio.org/redmine/projects/gnuradio/wiki/InstallingGR'
p460
aS'http://www.robotshop.com/en/lego-mindstorms-nxt-magnetic-compass.html'
p461
aS'http://www.dexterindustries.com/howto/lego-mindstorms-sensors-with-the-raspberry-pi/'
p462
aS'http://www.picaxe.com/Circuit-Creator/Sensors/Lego-NXT-Temperature/'
p463
aS'http://www.ev3dev.org/docs/sensors/lego-nxt-temperature-sensor/'
p464
aS'http://tldp.org/HOWTO/AX25-HOWTO/'
p465
aS'http://radio.linux.org.au/'
p466
aS'http://wiki.complete.org/LinuxPacketRadio'
p467
aS'http://makezine.com/'
p468
aS'http://www.makershed.com/'
p469
aS'https://github.com/marmelo/gqrx-remote'
p470
aS'https://github.com/raspberrypi/linux/issues/280'
p471
aS'http://www.hitechnic.com/cgi-bin/commerce.cgi?preadd=action&key=NAC1040'
p472
aS'https://www.hitechnic.com/cgi-bin/commerce.cgi?preadd=action&key=NAC1040'
p473
aS'http://www.hitechnic.com/cgi-bin/commerce.cgi?preadd=action&key=NMC1034'
p474
aS'http://hardkernel.com/main/products/prdt_info.php'
p475
aS'http://www.dexterindustries.com/BrickPi/program-it/python/'
p476
aS'https://code.google.com/p/ps3-controlled-radio-car/'
p477
aS'https://code.google.com/p/pyo/'
p478
aS'http://pyrorobotics.com/'
p479
aS'https://code.google.com/p/qtsdr/'
p480
aS'https://code.google.com/p/radiochronicle/'
p481
aS'http://www.rs-online.com/designspark/electronics/eng/nodes/view/type:design-centre/slug:raspberry-pi'
p482
aS'https://code.google.com/p/reu-sdr/'
p483
aS'https://github.com/roger-/pyrtlsdr'
p484
aS'https://github.com/rossengeorgiev/aprs-python'
p485
aS'http://sdr.osmocom.org/trac/wiki/rtl-sdr'
p486
aS'http://www.sdrsharp.com/'
p487
aS'https://code.google.com/p/sdrsharp/'
p488
aS'https://code.google.com/p/sdrtrunk/'
p489
aS'http://www.sigidwiki.com/wiki/Signal_Identification_Guide'
p490
aS'https://github.com/simonmonk/raspberrypi_cookbook'
p491
aS'http://www.atmel.com/products/smart-energy/default.aspx'
p492
aS'http://www.opencloudblog.com/?p=272'
p493
aS'https://code.google.com/p/softradio/source/checkout'
p494
aS'http://textract.readthedocs.org/en/latest/index.html'
p495
aS'https://pypi.python.org/pypi/textract'
p496
aS'http://techblog.netflix.com/2016/03/extracting-image-metadata-at-scale.html'
p497
aS'https://gnuradio.org/redmine/projects/gnuradio/wiki/Tutorials'
p498
aS'http://www.rfwiz.com/VertexStandard/Portables/VX-P920_VX-P921_VX-P924_VX-P929_Radio.htm'
p499
aS'http://www.yaesu.com/indexVS.cfm?cmd=DisplayProducts&ProdCatID=111&encProdID=25F65DA12CA1FCB444A927CD14417BFD'
p500
aS'http://picamera.readthedocs.org/en/release-1.10/quickstart.html'
p501
aS'http://picamera.readthedocs.org/en/release-1.10/recipes1.html'
p502
aS'https://github.com/DexterInd/BrickPi_Python/blob/master/Sensor_Examples/LEGO-Multi_Motor_Encoder_Test.py#L37'
p503
aS'https://github.com/adafruit/Adafruit-Raspberry-Pi-Python-Code'
p504
aS'https://github.com/karan259/BrickPi/tree/master/Models/SimpleBot'
p505
aS'https://github.com/FirstCypress/LiV/blob/master/software/liv/livAPIs/livAPIs.py'
p506
aS'https://github.com/mw46d/BrickPi/'
p507
aS'http://www.pygame.org/docs/ref/examples.html'
p508
aS'http://www.pygame.org/docs/ref/tests.html'
p509
aS'http://www.pygame.org/docs/ref/mouse.html'
p510
aS'http://store.hackaday.com/products/usb-rubber-ducky-deluxe'
p511
aS'http://store.hackaday.com/?from=had&utm_source=hackaday&utm_medium=menu&utm_campaign=blog'
p512
aS'http://store.hackaday.com/products/dslogic'
p513
aS'http://store.hackaday.com/products/oscilloscope-dslogic'
p514
aS'https://pythonhosted.org/BrickPython/introduction.html'
p515
aS'http://letsmakerobots.com/taxonomy/term/1482'
p516
aS'http://www.robotappstore.com/Knowledge-Base/-How-to-Control-Lego-NXT-Motors/81.html'
p517
aS'http://www.raspberrypi-spy.co.uk/2013/05/how-to-disable-the-red-led-on-the-pi-camera-module/'
p518
aS'http://www.makershed.com/collections/stem-gifts'
p519
aS'http://babaawesam.com/2014/01/24/power-saving-tips-for-raspberry-pi/'
p520
aS'https://www.labviewmakerhub.com/'
p521
aS'http://www.tsxperts.com/labviewforraspberrypi/'
p522
aS'https://shop.education.lego.com/legoed/en-US/catalog/product.jsp?productId=9695&isSimpleSearch=false&ProductLine=LEGO-MINDSTORMS-Education-NXT'
p523
aS'http://www.raspberry-projects.com/pi/programming-in-python/i2c-programming-in-python/using-the-i2c-interface-2'
p524
aS'https://hackaday.io/projects'
p525
aS'http://www.dexterindustries.com/site/?product_cat=brickpi-lego-for-raspberry-pi&PageSpeed=noscript'
p526
aS'http://ladyada.net/wiki/partfinder#rtc'
p527
aS'https://help.ubuntu.com/community/Webcam'
p528
aS'http://www.nerdparadise.com/tech/python/pygame/basics/'
p529
aS'http://karlherrick.com/2014/01/20/lego-car-raspberry-pi/'
p530
aS'http://www.quickparts.3dsystems.com/solutions/?gclid=COjt06uS1sYCFYMYHwodpbsMtA'
p531
aS'http://fontstruct.com/gallery/tag/386/5x7'
p532
aS'http://www.dexterindustries.com/BrickPi/getting-started/attaching-lego/'
p533
aS'http://pidashcam.blogspot.nl/2013/10/wiring-button-some-leds-and-gps.html'
p534
aS'https://www.adafruit.com/products/1231'
p535
aS'http://airpi.es/kit.php'
p536
aS'http://w8bh.net/'
p537
aS'http://wiki.complete.org/AmateurRadio'
p538
aS'http://www.klcconsulting.net/ascii.htm'
p539
aS'http://www.ece.uvic.ca/~elec350/grc_doc/ar01s05s03.html'
p540
aS'http://www.raspberrypi-spy.co.uk/2015/03/bh1750fvi-i2c-digital-light-intensity-sensor/'
p541
aS'http://www.brickshelf.com/cgi-bin/gallery.cgi?i=4056414'
p542
aS'http://lifehacker.com/build-a-tiny-computer-hacking-tool-with-a-raspberry-pi-1661664007'
p543
aS'http://lifehacker.com/build-some-awesome-motion-controlled-servos-with-a-rasp-1730180068'
p544
aS'http://www.hobbytronics.co.uk/bus-pirate'
p545
aS'https://www.raspberrypi.org/documentation/usage/camera/README.md'
p546
aS'http://www.rowetel.com/blog/?page_id=452'
p547
aS'https://www.cl.cam.ac.uk/projects/raspberrypi/tutorials/rpii/cintro.html'
p548
aS'http://gerfficient.com/2014/02/12/connecting-1-8-tft-lcd-to-raspberry-pi/'
p549
aS'http://www.radio-electronics.com/info/broadcast/dab/dab_frequencies.php'
p550
aS'http://dangerousprototypes.com/tag/rtl-sdr/'
p551
aS'http://sqlitebrowser.org/'
p552
aS'http://en.m.wikipedia.org/wiki/DBi#Antenna_measurements'
p553
aS'http://marcinkowski.ca/blog/2014/02/21/decoding-dmr-part-2-pulseaudio-null-sink'
p554
aS'http://hertaville.com/2012/09/28/development-environment-raspberry-pi-cross-compiler/'
p555
aS'https://developer.mbed.org/'
p556
aS'http://blog.jacobean.net/?p=986'
p557
aS'http://www.dsdplus.com/download-2/'
p558
aS'http://www.rtl-sdr.com/tag/dsd/'
p559
aS'http://www.rtl-sdr.com/dsd-version-1-5-released/'
p560
aS'http://electronics.stackexchange.com/'
p561
aS'http://www.eeherald.com/index.html'
p562
aS'http://www.dummies.com/how-to/content/electronics-schematics-commonly-used-symbols-and-l.html'
p563
aS'http://www.w1hkj.com/Fldigi.html'
p564
aS'http://www.dexterindustries.com/BrickPi/getting-started/'
p565
aS'https://learn.sparkfun.com/tutorials/getting-started-with-the-brickpi'
p566
aS'http://www.hitechnic.com/downloads'
p567
aS'http://www.hitechnic.com/'
p568
aS'http://www.hitechnic.com/models'
p569
aS'http://www.dexterindustries.com/topic/hitechnic-sensors-2/'
p570
aS'http://www.howtogeek.com/167195/how-to-change-your-raspberry-pi-or-other-linux-devices-hostname/'
p571
aS'http://gnuarmeclipse.github.io/toolchain/install/'
p572
aS'https://sites.google.com/site/policescannerhowto/'
p573
aS'http://www.networkworld.com/article/2999977/opensource-subnet/how-to-turn-a-raspberry-pi-into-an-fm-radio-transmitter.html?google_editors_picks=true'
p574
aS'http://www.raspberrypi-spy.co.uk/2013/07/how-to-use-a-mcp23017-i2c-port-expander-with-the-raspberry-pi-part-3/'
p575
aS'https://sites.google.com/site/semilleroadt/raspberry-pi-tutorials/gpio'
p576
aS'https://plus.google.com/+adafruit/posts/7joC3ZFJpDC'
p577
aS'https://www.maximintegrated.com/en/app-notes/index.mvp/id/4649'
p578
aS'http://www.dexterindustries.com/howto/'
p579
aS'https://developer.mbed.org/handbook/I2C'
p580
aS'http://quick2wire.com/articles/i2c-and-spi/'
p581
aS'http://i2c.info/'
p582
aS'http://www.tau.ac.il/~stoledo/lego/i2c-8574/'
p583
aS'http://docs.lpcware.com/lpc800um/RegisterMaps/i2c/r-Register-description.html'
p584
aS'http://blog.luisrei.com/articles/flaskrest.html'
p585
aS'https://gnuradio.org/redmine/projects/gnuradio/wiki/InstallingGR'
p586
aS'http://www.nxp.com/products/interface_and_connectivity/#I2C'
p587
aS'http://www.joshknows.com/gnuradio'
p588
aS'http://www.joshknows.com/projects'
p589
aS'https://www.offensive-security.com/kali-linux-vmware-arm-image-download/'
p590
aS'http://kipkay.com/'
p591
aS'https://github.com/notro/fbtft/wiki/LCD-Modules'
p592
aS'http://www.robotshop.com/en/lego-mindstorms-nxt-magnetic-compass.html'
p593
aS'http://programmablebrick.blogspot.in/2014/06/lego-digital-clock.html'
p594
aS'http://www.dexterindustries.com/howto/lego-mindstorms-sensors-with-the-raspberry-pi/'
p595
aS'http://www.picaxe.com/Circuit-Creator/Sensors/Lego-NXT-Temperature/'
p596
aS'http://www.ev3dev.org/docs/sensors/lego-nxt-temperature-sensor/'
p597
aS'http://tldp.org/HOWTO/AX25-HOWTO/'
p598
aS'http://radio.linux.org.au/'
p599
aS'http://www.mjmwired.net/kernel/Documentation/fb/fbcon.txt#72'
p600
aS'http://wiki.complete.org/LinuxPacketRadio'
p601
aS'http://www.pieter-jan.com/node/15'
p602
aS'https://www.raspberrypi.org/magpi/'
p603
aS'http://makezine.com/'
p604
aS'http://www.ladyada.net/make/'
p605
aS'http://www.makershed.com/'
p606
aS'http://mamedev.org/'
p607
aS'http://www.mplayerhq.hu/DOCS/man/en/mplayer.1.html#PROFILES'
p608
aS'http://www.hitechnic.com/cgi-bin/commerce.cgi?preadd=action&key=NAC1040'
p609
aS'https://www.hitechnic.com/cgi-bin/commerce.cgi?preadd=action&key=NAC1040'
p610
aS'https://www.hitechnic.com/cgi-bin/commerce.cgi?preadd=action&key=NAC1040'
p611
aS'http://www.hitechnic.com/cgi-bin/commerce.cgi?preadd=action&key=NMC1034'
p612
aS'http://hardkernel.com/main/products/prdt_info.php'
p613
aS'https://shop.pimoroni.com/products/pitft-plus-pibow'
p614
aS'http://picamera.readthedocs.org/en/release-1.10/'
p615
aS'http://www.dexterindustries.com/BrickPi/program-it/python/'
p616
aS'http://en.m.wikipedia.org/wiki/PSK31'
p617
aS'http://pyrorobotics.com/'
p618
aS'http://www.dk0tu.de/users/DL5BBN/Python_Amateur_Radio_Programs/'
p619
aS'http://pydoc.net/Python/nxt-python/2.2.2/'
p620
aS'https://www.raspberrypi.org/documentation/usage/camera/python/README.md'
p621
aS'http://elinux.org/R-Pi_Troubleshooting#Troubleshooting_power_problems'
p622
aS'http://www.noveldevices.co.uk/rp-gcc'
p623
aS'http://www.rs-online.com/designspark/electronics/eng/nodes/view/type:design-centre/slug:raspberry-pi'
p624
aS'http://www.raspberry-pi.co.uk/'
p625
aS'https://projects.drogon.net/raspberry-pi/wiringpi/pins/'
p626
aS'http://www.thingiverse.com/thing:922740'
p627
aS'http://usadye.ru/full-desc/aHR0cDovL3dpcmluZ3BpLmNvbS9leGFtcGxlcy9xdWljazJ3aXJlLWFuZC13aXJpbmdwaS90aGUtYW5hbG9nLWludGVyZmFjZS1ib2FyZC98fFJhc3BiZXJyeSBQaSBBbmFsb2cgSW5wdXQgQWRhcHRlcnx8MHx8V2VifHw0MQ'
p628
aS'http://ozzmaker.com/2012/11/23/raspberrypi-tft/'
p629
aS'http://www.instructables.com/id/Raspberry-Pi-as-low-cost-HD-surveillance-camera/step7/Installing-the-motion-detection-software/'
p630
aS'https://www.thingiverse.com/thing:1096457'
p631
aS'http://makezine.com/projects/tutorial-raspberry-pi-gpio-pins-and-python/'
p632
aS'http://m.instructables.com/id/Raspberry-Pi-I2C-Python/step5/Example-1-CMPS03-Compass-Module/'
p633
aS'https://harizanov.com/2013/08/raspberry-pi-kernel-with-frame-buffer-tft-support/'
p634
aS'http://www.petervis.com/Raspberry_PI/Raspberry_Pi_LCD/Raspberry_Pi_LCD_DSI_Display_Connector.html'
p635
aS'http://raspberry.tips/raspberrypi-tutorials/raspberry-pi-modell-b-plus-gpio-pins-worksheet/'
p636
aS'http://diyhacking.com/raspberry-pi-touchscreen-lcd-tutorial/'
p637
aS'http://m.instructables.com/id/Raspberry-Pi-Writing-C-code-for-Raspberry-Pi/'
p638
aS'https://code.google.com/p/reu-sdr/'
p639
aS'http://elinux.org/RPi_Hub'
p640
aS'http://elinux.org/RPi_Low-level_peripherals'
p641
aS'http://www.rs-online.com/designspark/electronics/eng/page/rs-university-teaching-materials'
p642
aS'http://sdr.osmocom.org/trac/wiki/rtl-sdr'
p643
aS'http://www.sainsmart.com/sainsmart-1-8-spi-lcd-module-with-microsd-led-backlight-for-arduino-mega-atmel-atmega.html'
p644
aS'http://www.sdrsharp.com/'
p645
aS'https://learn.sparkfun.com/tutorials/serial-peripheral-interface-spi/slave-select-ss'
p646
aS'http://www.shapeways.com/'
p647
aS'http://www.sigidwiki.com/wiki/Signal_Identification_Guide'
p648
aS'http://www.100randomtasks.com/simple-spi-on-raspberry-pi'
p649
aS'http://www.atmel.com/products/smart-energy/default.aspx'
p650
aS'http://www.opencloudblog.com/?p=272'
p651
aS'https://www.sparkfun.com/products/11931'
p652
aS'https://www.sparkfun.com/'
p653
aS'https://developer.mbed.org/users/smultron1977/notebook/spi-18-tft--mbed-work-in-progress/'
p654
aS'http://stella.sourceforge.net/development.php'
p655
aS'http://www.vctlabs.com/posts/2014/Oct/22/pitft_kernel/'
p656
aS'http://www.instructables.com/tag/type-id/category-technology/channel-raspberry-pi/?sort=POPULAR&offset=118'
p657
aS'http://www.cl.cam.ac.uk/research/dtg/attarchive/facedatabase.html'
p658
aS'http://www.eran.io/the-dot-factory-an-lcd-font-and-image-generator/'
p659
aS'http://www.eran.io/the-dot-factory-an-lcd-font-and-image-generator/'
p660
aS'https://projects.drogon.net/raspberry-pi/wiringpi/the-gpio-utility/'
p661
aS'http://www.themagpi.com/'
p662
aS'http://www.thingiverse.com/'
p663
aS'http://electronics.stackexchange.com/questions/152700/spi-chip-select-data-clock-delay-tolerance'
p664
aS'https://blog.idrsolutions.com/2014/12/top-8-ides-programmers-coders-beginners-raspberry-pi/'
p665
aS'http://www.mathworks.com/help/supportpkg/raspberrypiio/ug/use-the-spi-interface-on-the-raspberry-pi-hardware.html'
p666
aS'https://harizanov.com/2013/02/using-my-1-8-tft-as-a-raspberry-pi-status-display/'
p667
aS'http://www.crazy-audio.com/2013/11/using-the-raspberry-pi-as-a-dsp/'
p668
aS'http://www.rfwiz.com/VertexStandard/Portables/VX-P920_VX-P921_VX-P924_VX-P929_Radio.htm'
p669
aS'https://www.videolan.org/doc/vlc-user-guide/en/index.html'
p670
aS'https://www.raspberrypi.org/learning/getting-started-with-scratch/worksheet/'
p671
aS'https://pypi.python.org/pypi/zeroconf'
p672
aS'http://osoyoo.com/?p=403'
p673
aS'http://osoyoo.com/?p=403'
p674
aS'http://osoyoo.com/?p=508'
p675
aS'http://osoyoo.com/?p=572'
p676
aS'http://osoyoo.com/?p=686'
p677
aS'http://osoyoo.com/?p=632'
p678
aS'http://osoyoo.com/?p=679'
p679
aS'http://osoyoo.com/?p=701'
p680
aS'http://osoyoo.com/?p=607'
p681
aS'http://osoyoo.com/?p=640'
p682
aS'http://osoyoo.com/?p=664'
p683
aS'http://osoyoo.com/?p=615'
p684
aS'http://osoyoo.com/?p=558'
p685
aS'http://osoyoo.com/?p=607'
p686
aS'http://osoyoo.com/?p=701'
p687
aS'http://osoyoo.com/?p=508'
p688
aS'http://osoyoo.com/?p=518'
p689
aS'http://osoyoo.com/?p=403'
p690
aS'http://playground.arduino.cc/Main/DirectDriveLEDMatrix'
p691
aS'https://www.arduino.cc/'
p692
aS'http://playground.arduino.cc/CommonTopics/PullUpDownResistor'
p693
aS'http://playground.arduino.cc/Main/MPU-6050'
p694
aS'https://www.arduino.cc/en/Reference/Libraries'
p695
aS'https://www.arduino.cc/en/Reference/HomePage'
p696
aS'http://playground.arduino.cc/Main/DevelopmentTools#PROGRAMINO'
p697
aS'https://www.arduino.cc/en/Tutorial/RowColumnScanning'
p698
aS'https://www.arduino.cc/en/Tutorial/ShiftOut'
p699
aS'https://learn.adafruit.com/program-an-avr-or-arduino-using-raspberry-pi-gpio-pins/configuration'
p700
aS'https://learn.adafruit.com/usbtinyisp/avrdude'
p701
aS'https://learn.adafruit.com/introducing-trinket/programming-with-avrdude'
p702
aS'https://learn.adafruit.com/introducing-trinket/starting-the-bootloader'
p703
aS'https://github.com/marcmerlin/LED-Matrix/'
p704
aS'http://hack.lenotta.com/arduino-raspberry-pi-switching-light-with-nrf24l01/'
p705
aS'http://download.savannah.gnu.org/releases/avrdude/'
p706
aS'http://microcontrollershop.com/product_info.php?products_id=2223'
p707
aS'http://www.nongnu.org/avrdude/user-manual/avrdude_4.html#Option-Descriptions'
p708
aS'https://learn.sparkfun.com/tutorials/pocket-avr-programmer-hookup-guide/using-avrdude'
p709
aS'http://www.dexterindustries.com/Arduberry/getting-started/'
p710
aS'http://www.ladyada.net/learn/avr/setup-unix.html'
p711
aS'http://www.ladyada.net/learn/arduino/lesson5.html'
p712
aS'http://www.circuitstoday.com/avr-microcontroller-tutorial'
p713
aS'http://www.dexterindustries.com/Arduberry/how-to-program-the-arduberry/'
p714
aS'http://cdn.sparkfun.com/datasheets/Kits/LED_Matrix_Kit_Example.ino'
p715
aS'https://www.sparkfun.com/products/11861'
p716
aS'http://linksprite.com/wiki/index.php5?title=LED_Matrix_Kit'
p717
aS'http://www.nongnu.org/avrdude/user-manual/avrdude_toc.html#SEC_Contents'
p718
aS'https://visualstudiogallery.msdn.microsoft.com/069a905d-387d-4415-bc37-665a5ac9caba'
p719
aS'https://www.arduino.cc/en/Main/Donate'
p720
aS'http://www.kanda.com/avr-isp-software.html'
p721
aS'http://www.visualmicro.com/page/Arduino-Visual-Studio-Downloads.aspx?from=auto'
p722
aS'https://www.visualstudio.com/downloads/download-visual-studio-vs'
p723
aS'http://playground.arduino.cc/CommonTopics/PullUpDownResistor'
p724
aS'http://www.ladyada.net/learn/arduino/lesson5.html'
p725
aS'http://www.legomindstormsrobots.com/arduino/connecting-arduino-raspberry-pi-i2c/'
p726
aS'http://log.liminastudio.com/writing/tutorials/tutorial-how-to-use-your-raspberry-pi-like-an-arduino'
p727
aS'http://www.mountaingoatsoftware.com/blog/how-can-we-get-the-best-estimates-of-story-size'
p728
aS'http://www.agilemodeling.com/artifacts/userStory.htm'
p729
aS'http://servicetechmag.com/I78/1113-1'
p730
aS'http://community.versionone.com/Help-Center/Product-Planning/PlanningRoom?utm_source=v1instance&utm_medium=link&utm_campaign=utilitynavhelp&edition=ultimate&build=14.3&subscription=Paid&privilege=Team+Member'
p731
aS'http://www.mountaingoatsoftware.com/blog/how-can-we-get-the-best-estimates-of-story-size'
p732
aS'http://www.agilemodeling.com/artifacts/userStory.htm'
p733
aS'http://servicetechmag.com/I78/1113-1'
p734
aS'http://community.versionone.com/Help-Center/Product-Planning/PlanningRoom?utm_source=v1instance&utm_medium=link&utm_campaign=utilitynavhelp&edition=ultimate&build=14.3&subscription=Paid&privilege=Team+Member'
p735
aS'http://www.mountaingoatsoftware.com/blog/how-can-we-get-the-best-estimates-of-story-size'
p736
aS'http://www.agilemodeling.com/artifacts/userStory.htm'
p737
aS'http://servicetechmag.com/I78/1113-1'
p738
aS'http://community.versionone.com/Help-Center/Product-Planning/PlanningRoom?utm_source=v1instance&utm_medium=link&utm_campaign=utilitynavhelp&edition=ultimate&build=14.3&subscription=Paid&privilege=Team+Member'
p739
aS'http://www.mountaingoatsoftware.com/blog/how-can-we-get-the-best-estimates-of-story-size'
p740
aS'http://neovintage.org/2016/01/24/a-methodology-for-retiring-products/'
p741
aS'http://pubs.opengroup.org/architecture/archimate2-doc/toc.html'
p742
aS'http://www.corso3.com/products/archimate/'
p743
aS'http://www.archimatetool.com/'
p744
aS'https://confluence.disney.com/display/WDPRAPPINT/Application+Overview'
p745
aS'https://confluence.disney.com/pages/viewpage.action?pageId=45255844'
p746
aS'http://www.archimate.nl/en/start_using_archimate/'
p747
aS'https://docs.google.com/a/apps.disney.com/drawings/d/162gmpRRvbf6wJcIdQ20vjPM8-w3r9ld2aP-nFOKX0Jg/edit?hl=sv'
p748
aS'http://gevaertw.wordpress.com/2013/01/05/importing-lots-of-items-in-archimate-from-csv/'
p749
aS'http://blog.bizzdesign.com/archimate-core-tailoring-archimate'
p750
aS'http://masteringarchimate.com/mastering-archimate-edition-ii/#toolsupport'
p751
aS'http://www.archimatetool.com/developer'
p752
aS'http://en.m.wikipedia.org/wiki/IBM_RPG'
p753
aS'http://www.itjungle.com/fhg/fhg082510-story01.html'
p754
aS"https://www.ibm.com/developerworks/community/wikis/home?lang=en#!/wiki/We13116a562db_467e_bcd4_882013aec57a/page/Coding%20in%20RPG%20IV%20-%20a%20beginner's%20tutorial"
p755
aS'http://www.iseriespython.com/app/ispMain.py/Start?job=Examples&testing='
p756
aS'http://www.texas400.com/default.html'
p757
aS'http://www.texas400.com/tutas400toc.html'
p758
aS'http://www.texas400.com/tutrpglesson1.html'
p759
aS'http://java.dzone.com/articles/angularjs-how-code-quickly'
p760
aS'http://www.cheat-sheets.org/#DomainDrivenDesign'
p761
aS'http://dddcommunity.org/'
p762
aS'https://docs.djangoproject.com/en/1.8/'
p763
aS'https://www.djangoproject.com/start/overview/'
p764
aS'http://djangotricks.blogspot.com/2009/10/weather-app-tutorial-part-2-of-5-models.html'
p765
aS'http://djangotricks.blogspot.com/2009/10/weather-app-tutorial-part-5-of-5-graph.html'
p766
aS'http://www.dzone.com/links/index.html'
p767
aS'http://effectivedjango.com/tutorial/related.html'
p768
aS'http://www.w3schools.com/html/html_tables.asp'
p769
aS'http://www.w3schools.com/html/default.asp'
p770
aS'http://www.java8.org/'
p771
aS'http://www.w3schools.com/js/js_comparisons.asp'
p772
aS'http://ryanstutorials.net/linuxtutorial/cheatsheetgrep.php'
p773
aS'http://ryanstutorials.net/linuxtutorial/cheatsheetvi.php'
p774
aS'http://www.tutorialspoint.com/nodejs/index.htm'
p775
aS'http://strftime.org/'
p776
aS'https://liquidat.wordpress.com/2008/06/01/short-tip-move-an-x-window-in-linux-with-the-alt-key/'
p777
aS'http://www.w3schools.com/sql/sql_update.asp'
p778
aS'http://www.sqlite.org/lang_expr.html'
p779
aS'http://www.tutorialspoint.com/'
p780
aS'https://blog.risingstack.com/web-authentication-methods-explained/'
p781
aS'http://www.w3schools.com/xpath/'
p782
aS'http://coding-robin.de/2013/07/22/train-your-own-opencv-haar-classifier.html'
p783
aS'https://github.com/shantnu/FaceDetect/'
p784
aS'http://scikit-learn.sourceforge.net/0.6/auto_examples/applications/plot_face_recognition.html'
p785
aS'https://en.m.wikipedia.org/wiki/CUDA'
p786
aS'http://scipy.github.io/old-wiki/pages/Tentative_NumPy_Tutorial.html'
p787
aS'http://scipy.github.io/old-wiki/pages/Numpy_Example_List'
p788
aS'https://www.flightradar24.com/60,15/6'
p789
aS'https://www.flightradar24.com/59.04,12.14/4'
p790
aS'https://www.videolan.org/'
p791
aS'https://www.coursera.org/course/thinkagain'
p792
aS'https://www.coursera.org/specialization/projectmanagement/18?utm_medium=listingPage'
p793
aS'http://ocw.mit.edu/index.htm'
p794
aS'https://lagunita.stanford.edu/courses/HumanitiesSciences/StatLearning/Winter2016/about'
p795
aS'https://samsymons.com/blog/reverse-engineering-with-radare2-part-1/'
p796
aS'https://www.coursera.org/specializations/reasoning'
p797
aS'http://en.wikipedia.org/wiki/70/20/10_Model'
p798
aS'https://training.fema.gov/IS/crslist.aspx?page=4'
p799
aS'https://www.coursera.org/'
p800
aS'http://ocw.mit.edu/courses/electrical-engineering-and-computer-science/6-863j-natural-language-and-the-computer-representation-of-knowledge-spring-2003/'
p801
aS'http://www.archimatetool.com/dev/import-export'
p802
aS'https://github.com/guerrilla-ea/strategy-map'
p803
aS'https://github.com/archimatetool/OpenGroupXMLExchange'
p804
aS'https://github.com/jewzaam/java-callgraph-to-archimate'
p805
aS'https://18f.gsa.gov/2015/11/17/choose-design-over-architecture/'
p806
aS'https://msol.io/blog/tech/2015/09/05/youre-probably-wrong-about-caching/'
p807
aS'https://www.getdonedone.com/a-primer-on-delivering-a-good-presentation/'
p808
aS'http://blog.bizzdesign.com/10-time-saving-bizzdesign-architect-shortcuts'
p809
aS'http://coolors.co/'
p810
aS'https://en.m.wikipedia.org/wiki/Product_breakdown_structure'
p811
aS'http://www.cs.unc.edu/~stotts/145/cocomo.html'
p812
aS'http://www.firatatagun.com/blog/2016/01/09/analysis-of-software-architectures/'
p813
aS'http://www.eightypercent.net/post/layers-in-the-stack.html'
p814
aS'http://www.tutorialspoint.com/design_pattern/index.htm'
p815
aS'http://www.ibm.com/developerworks/rational/library/3100.html'
p816
aS'http://notes.3kbo.com/fea-rmo'
p817
aS'http://pubs.opengroup.org/architecture/togaf8-doc/arch/chap19.html'
p818
aS'http://www.omg.org/mda/presentations.htm'
p819
aS'http://modewis.blogspot.com/2008/11/mda-framework.html'
p820
aS'http://msdn.microsoft.com/en-us/architecture/aa902621.aspx'
p821
aS'http://en.wikipedia.org/wiki/IDEF'
p822
aS'http://www.financialarmageddon.com/'
p823
aS'https://stripe.com/docs/guides/bitcoin-beta'
p824
aS'http://seekingalpha.com/news/all'
p825
aS'http://www.calculatedriskblog.com/'
p826
aS'http://www.nature.com/articles/srep18634'
p827
aS'http://globaleconomicanalysis.blogspot.com/'
p828
aS'http://www.nakedcapitalism.com/'
p829
aS'http://www.nickkolenda.com/psychological-pricing-strategies/'
p830
aS'http://playbook.samaltman.com/'
p831
aS'http://blog.learningbyshipping.com/2014/12/30/why-remote-engineering-is-so-difficult/'
p832
aS'http://www.zerohedge.com/'
p833
aS'http://blog.mldb.ai/blog/posts/2016/01/ml-meets-economics/'
p834
aS'http://blog.mldb.ai/blog/posts/2016/04/ml-meets-economics2/'
p835
aS'http://www.dummies.com/how-to/content/basic-electronic-components-and-what-they-do.html'
p836
aS'http://www.bitscope.com/ed/'
p837
aS'http://www.cl.cam.ac.uk/projects/raspberrypi/tutorials/os/'
p838
aS'http://www.element14.com/community/welcome'
p839
aS'http://www.efytechcenter.com/'
p840
aS'https://github.com/raspberrypilearning'
p841
aS'http://serendipity.ruwenzori.net/index.php/2015/06/01/sending-an-audio-stream-across-the-network-to-a-remote-raspberry-pi-with-pulseaudio-the-easy-way'
p842
aS'https://dzone.com/articles/5-greatest-ted-talks-on-iot?utm_medium=feed&amp;utm_source=feedpress.me&amp;utm_campaign=Feed:%20dzone'
p843
aS'http://robotics.ong.id.au/'
p844
aS'http://thehelpcentre.xyz/question/27791694/alsa-application-to-read-and-play-a-wav-file-on-raspberry-pi'
p845
aS'http://mosquitto.org/'
p846
aS'http://kafka.apache.org/'
p847
aS'https://bitbucket.org/'
p848
aS'http://stackoverflow.com/questions/32249621/capturing-audio-with-python-on-the-raspberry-pi-fails'
p849
aS'http://www.cheat-sheets.org/'
p850
aS'https://dbader.org/blog/crackle-free-audio-on-the-raspberry-pi-with-mpd-and-pulseaudio'
p851
aS'http://www.digikey.com/'
p852
aS'https://pypi.python.org/pypi/easymqtt/0.1.0'
p853
aS'http://www.flingos.co.uk/'
p854
aS'http://foscam.us/'
p855
aS'https://spin.atomicobject.com/2014/03/19/mqtt-protocol-ethernet/'
p856
aS'https://dzone.com/articles/getting-started-mqtt-part-2'
p857
aS'https://github.com/mqttjs/MQTT.js'
p858
aS'http://www.hivemq.com/'
p859
aS'http://mqttfx.jfx4ee.org/'
p860
aS'https://github.com/mqtt/mqtt.github.io/wiki'
p861
aS'https://www.mbed.com/en/#'
p862
aS'https://dzone.com/articles/internet-things-mqtt-quality'
p863
aS'http://www.allaboutcircuits.com/projects/introduction-to-the-mqtt-protocol-on-nodemcu/'
p864
aS'https://github.com/jpmens?tab=repositories'
p865
aS'http://www.jyetech.com/Products/LcdScope/e138.php'
p866
aS'http://jkbrickworks.com/category/models/'
p867
aS'http://mqtt.org/'
p868
aS'https://learn.adafruit.com/adafruit-io/mqtt-api'
p869
aS'https://github.com/openhab/openhab/wiki/MQTT-Persistence'
p870
aS'http://osoyoo.com/?p=403'
p871
aS'https://pypi.python.org/pypi/paho-mqtt/1.1#publishing'
p872
aS'https://pypi.python.org/pypi/paho-mqtt/1.1'
p873
aS'http://www.raspberry-projects.com/pi/programming-in-c/audio/playing-audio'
p874
aS'http://www.freedesktop.org/wiki/Software/PulseAudio/'
p875
aS'https://virtualenv.readthedocs.org/en/latest/reference.html'
p876
aS'http://www.senaindustrial.com/products/industrial_zigbee/zigbee_summary.php'
p877
aS'http://www.sena.com/'
p878
aS'http://www.ti.com/ww/en/wireless_connectivity/sensortag2015/?INTC=SensorTag&HQS=sensortag'
p879
aS'http://zetcode.com/db/sqlite/tool/'
p880
aS'http://www.zigbee.org/'
p881
aS'https://dzone.com/articles/understanding-the-mqtt-protocol-for-the-internet-o'
p882
aS'http://m.electronicdesign.com/iot/understanding-protocols-behind-internet-things'
p883
aS'http://visjs.org/'
p884
aS'http://www.wavsource.com/movies/monty_python_holy_grail.htm'
p885
aS'https://wheel.readthedocs.org/en/latest/'
p886
aS'http://reference.wolfram.com/language/'
p887
aS'https://developer.mozilla.org/en-US/docs/Web/API/WebSockets_API/Writing_WebSocket_client_applications'
p888
aS'http://www.digikey.com/product-detail/en/XB24-Z7WIT-004/602-1098-ND/1942304'
p889
aS'http://www.digikey.com/en/product-highlight/d/digi-intl/xbee-zigbee-cloud-kit?WT.srch=1'
p890
aS'https://www.yhat.com/products/rodeo'
p891
aS'https://en.m.wikipedia.org/wiki/ZigBee'
p892
aS'http://mqtt.org/wiki/software'
p893
aS'http://www.ece.uvic.ca/~elec350/lab_manual/ar01s02.html'
p894
aS'http://www.ece.uvic.ca/~elec350/lab_manual/ar01s03s03.html'
p895
aS'http://machinelearningmastery.com/a-gentle-introduction-to-scikit-learn-a-python-machine-learning-library/'
p896
aS'http://www.atmel.com/default.aspx'
p897
aS'http://lifehacker.com/avoid-feeling-overwhelmed-at-work-with-the-four-ds-me-1705678087'
p898
aS'https://medium.com/@jbrukh/blockchain-investment-vehicles-3ca285797060'
p899
aS'http://www.dailymail.co.uk/sciencetech/article-3067526/Can-t-sleep-4-7-8-breathing-technique-claims-help-nod-60-SECONDS.html'
p900
aS'http://www.melconway.com/Home/Conways_Law.html'
p901
aS'http://www.csun.edu/~skatz/katzpage/sdr_project/sdrproject.html'
p902
aS'http://x.cygwin.com/'
p903
aS'http://cybergrandchallenge.com/'
p904
aS'http://data-art.net/newscloud/'
p905
aS'http://marcinkowski.ca/blog/2014/02/19/decoding-dmr-radio-using-rtlsdr-gqrx-and-pulseaudio'
p906
aS'http://deeplearning.net/tutorial/'
p907
aS'http://www.dzone.com/links/r/agile_architecture_reversibility_communication_an.html'
p908
aS'http://www.dzone.com/links/r/learn_angular_js_getting_started.html'
p909
aS'http://www.dzone.com/links/r/unity_multiplayer_game_development_tutorials.html'
p910
aS'https://firstlook.org/theintercept/2015/04/27/encrypting-laptop-like-mean/'
p911
aS'http://fermatslibrary.com/'
p912
aS'http://www.nationalreview.com/article/418178/finding-ireland-pacific-northwest-kathryn-jean-lopez'
p913
aS'http://lifehacker.com/five-best-bluetooth-speakers-1265389497'
p914
aS'http://blog.gem.co/post/119547746215/making-the-case-for-haskell'
p915
aS'http://kubernetes.io/gettingstarted/'
p916
aS'http://git-scm.com/docs/gittutorial'
p917
aS'http://fserb.com.br/newscloud/'
p918
aS'http://www.gunsofireland.com/the-easter-rising/'
p919
aS'https://www.heroku.com/'
p920
aS'http://highscalability.com/blog/2015/7/6/how-do-we-explain-the-unreasonable-effectiveness-of-it.html'
p921
aS'http://lifehacker.com/how-to-write-with-substance-and-improve-your-communicat-1698241167'
p922
aS'http://scikit-learn.org/stable/install.html#installation-instructions'
p923
aS'http://engineering.remind.com/introducing-empire/'
p924
aS'http://www.choisser.com/packet/'
p925
aS'http://jekyllrb.com/'
p926
aS'http://sourceforge.net/projects/linpsk/'
p927
aS'http://www.tldp.org/HOWTO/AX25-HOWTO/index.html'
p928
aS'http://www.trafficland.com/city/MCO'
p929
aS'http://news.yahoo.com/mindfulness-therapy-good-medication-chronic-depression-study-230759984.html;_ylt=AwrC1C1VkDVVdhMAqQjQtDMD;_ylu=X3oDMTBzdWd2cWI5BGNvbG8DYmYxBHBvcwMxMAR2dGlkAwRzZWMDc3I-'
p930
aS'http://lucumr.pocoo.org/2014/1/5/unicode-in-2-and-3/'
p931
aS'https://en.m.wikipedia.org/wiki/MoSCoW_method'
p932
aS'http://thestandardsmanual.com/'
p933
aS'http://www.nws.noaa.gov/nwr/'
p934
aS'http://opensourceconnections.com/blog/2013/04/04/complete-n00bs-guide-to-enhancing-solrlucene-search-with-mahouts-machine-learning/'
p935
aS'https://sites.google.com/site/theoriginalepcot/the-florida-project'
p936
aS'http://www.parallelpython.com/'
p937
aS'http://flightaware.com/adsb/piaware/install'
p938
aS'http://steshaw.org/plt/'
p939
aS'http://aurellem.org/thoughts/html/sussman-reading-list.html'
p940
aS'https://www.google.com/webhp?sourceid=chrome-instant&ion=1&espv=2&ie=UTF-8#q=python%20c%20code'
p941
aS'https://www.python.org/dev/'
p942
aS'http://pythonprogramming.net/machine-learning-python-sklearn-intro/'
p943
aS'http://googleresearch.blogspot.com/'
p944
aS'https://profhugodegaris.wordpress.com/resource-rich-education/'
p945
aS'http://growthalytics.com/programming/2015/07/19/setting-up-your-own-blog/'
p946
aS'http://info.aprs.net/index.php?title=Software'
p947
aS'http://www.se-radio.net/'
p948
aS'http://www.tagxedo.com/'
p949
aS'https://msdn.microsoft.com/en-us/library/aa480154.aspx'
p950
aS'http://linpsk.sourceforge.net/docs/en/index.html'
p951
aS'http://12factor.net/'
p952
aS'http://lifehacker.com/this-calculator-helps-you-crack-any-master-combination-1700952467'
p953
aS'http://ramiro.org/vis/hn-most-linked-books/'
p954
aS'http://www.python-course.eu/index.php'
p955
aS'https://code.google.com/p/webiopi/'
p956
aS'http://berkeley-cs61as.github.io/'
p957
aS'http://videlalvaro.github.io/2015/12/learning-about-distributed-systems.html'
p958
aS'http://stefan-marr.de/papers/pldi-marr-et-al-zero-overhead-metaprogramming/'
p959
aS'https://github.com/zyantific/zyan-disassembler-engine'
p960
aS'https://www.usenix.org/legacy/events/sec03/tech/full_papers/crosby/crosby_html/index.html'
p961
aS'http://intronetworks.cs.luc.edu/current/html/index.html'
p962
aS'http://anubis.iseclab.org/'
p963
aS'http://cybercoyote.org/security/av-top.htm'
p964
aS'http://cybercoyote.org/security/av-top.htm'
p965
aS'https://github.com/dloss/python-pentest-tools'
p966
aS'http://dnsdumpster.com/'
p967
aS'http://resources.infosecinstitute.com/downloads/'
p968
aS'http://sectools.org/tool/dradis/'
p969
aS'https://www.cyphar.com/blog/post/getting-into-linux-kernel-development'
p970
aS'http://www.hackersonlineclub.com/hacking-tools'
p971
aS'http://mods-n-hacks.wonderhowto.com/how-to/crack-wi-fi-passwords-for-beginners-0139793/'
p972
aS'http://null-byte.wonderhowto.com/how-to/hack-wpa-wifi-passwords-by-cracking-wps-pin-0132542/'
p973
aS'http://www.hackersonlineclub.com/intrusion-detection-system-ids'
p974
aS'https://isc.sans.edu/forums/diary/JavaScriptHTML+droppers+as+a+targeted+attack+vector/3400'
p975
aS'http://www.hackersonlineclub.com/metasploit-tutorial/metasploit-cheatsheet'
p976
aS'http://map.norsecorp.com/'
p977
aS'http://pythonarsenal.erpscan.com/'
p978
aS'https://realm.io/news/conrad-kramer-reverse-engineering-ios-apps-lyft/'
p979
aS'https://github.com/samyk/usbdriveby'
p980
aS'http://www.sans.org/critical-security-controls'
p981
aS'https://blogs.mcafee.com/mcafee-labs/security-101-attack-vectors-take-advantage-of-user-interaction'
p982
aS'http://packetstormsecurity.com/files/tags/tool/'
p983
aS'http://m.spiegel.de/international/world/a-1013409-2.html'
p984
aS'http://www.apkforandroids.com/tomtom-maps-hack-android/'
p985
aS'http://packetstormsecurity.com/files/98831/'
p986
aS'http://www.binarytides.com/category/security/'
p987
aS'http://samy.pl/usbdriveby/'
p988
aS'http://zneak.github.io/fcd/2016/02/21/csaw-wyvern.html'
p989
aS'http://www.cert.org/blogs/certcc/post.cfm?EntryID=178'
p990
aS'http://www.howtogeek.com/204697/wi-fi-security-should-you-use-wpa2-aes-wpa2-tkip-or-both/'
p991
aS'http://www.wonderhowto.com/'
p992
aS'http://www.visual6502.org/'
p993
aS'http://security.cs.rpi.edu/courses/binexp-spring2015/'
p994
aS'https://dnsdumpster.com'
p995
aS'https://dnsdumpster.com/'
p996
aS'https://www.alienvault.com/blogs/security-essentials/building-a-home-lab-to-become-a-malware-hunter-a-beginners-guide'
p997
aS'http://ithare.com/udp-for-games-security-encryption-and-ddos-protection/'
p998
aS'https://panopticon.re/'
p999
aS'https://www.shodan.io/'
p1000
aS'http://anubis.iseclab.org/'
p1001
aS'http://lifehacker.com/5880876/de-mystifying-the-dark-corners-of-windows-the-registry-dlls-and-more-explained'
p1002
aS'http://null-byte.wonderhowto.com/how-to/hack-like-pro-scripting-for-aspiring-hacker-part-1-bash-basics-0149422/'
p1003
aS'https://docs.google.com/document/d/14Ce78JvHM8A2OvKqx7EZ2txTjQSVA2p7sBpdg6Pdte4/mobilebasic'
p1004
aS'http://www.lifehack.org/articles/communication/selfish-friends-6-ways-to-spot-them-before-you-get-hurt.html'
p1005
aS'http://www.computerworld.com/article/2849263/doxxing-defense-remove-your-personal-info-from-data-brokers.html'
p1006
aS'https://www.hellofax.com/home/manage'
p1007
aS'http://www.gethooksapp.com/'
p1008
aS'http://www.dsmweb.org/en/understand-dsm/technical-dsm-tutorial0/introduction-to-dsm.html'
p1009
aS'http://www.csu.edu.au/__data/assets/pdf_file/0018/109602/EFS_Journal_vol_5_no_2_02_Kennon_et_al.pdf'
p1010
aS'http://www.jpsoftwaretech.com/extract-calendar-data-from-outlook-into-excel/'
p1011
aS'http://www.google.com/imgres?start=159&sa=X&rls=com.microsoft:en-us:IE-SearchBox&biw=1920&bih=832&tbm=isch&tbnid=YEU93HzzwazhxM:&imgrefurl=http://www.ibm.com/developerworks/library/ar-bamda/&docid=Wq0GkBVHcuk6kM&imgurl=http://www.ibm.com/developerworks/library/ar-bamda/MDA-process.gif&w=572&h=233&ei=f7XIUeSXCYu89QTFgoGgCw&zoom=1&iact=hc&vpx=582&vpy=523&dur=2186&hovh=143&hovw=352&tx=149&ty=78&page=4&tbnh=115&tbnw=282&ndsp=59&ved=1t:429,r:72,s:100,i:220'
p1012
aS'https://wdpr.sharepoint.disney.com/sites/ogseg/default.aspx'
p1013
aS'http://holacracy.org/how-it-works'
p1014
aS'http://www.asaprec.com/articles/list-of-sap-modules-keywords-for-sap-jobs-titles-functional-and-technical'
p1015
aS'http://docs.oracle.com/cd/E17781_01/server.112/e18804/network.htm'
p1016
aS'https://www.ideo.com/work/method-cards/'
p1017
aS'http://en.wikipedia.org/wiki/Model_Driven_Interoperability'
p1018
aS'http://www.sparxsystems.com/enterprise_architect_user_guide/software_development/mdastyletransforms.html'
p1019
aS'http://www.hindawi.com/isrn/se/2012/670803/'
p1020
aS'https://en.m.wikipedia.org/wiki/MoSCoW_method'
p1021
aS'http://www.jsoftware.com/papers/tot.htm'
p1022
aS'http://en.wikipedia.org/wiki/OODA_loop'
p1023
aS'http://protegewiki.stanford.edu/wiki/Protege_Ontology_Library'
p1024
aS'http://en.wikipedia.org/wiki/Rfid'
p1025
aS'http://www.realtimerendering.com/blog/journal-of-graphics-tools-code-repository/'
p1026
aS'https://www.hellofax.com/home/index'
p1027
aS'https://msdn.microsoft.com/en-us/library/office/ff767122.aspx'
p1028
aS'http://www.sprinklr.com/social-media-management-system/engagement/'
p1029
aS'http://sourcecodecloud.codeplex.com/'
p1030
aS'https://github.com/szechyjs/dsd'
p1031
aS'https://github.com/zoofIO/flexx'
p1032
aS'https://github.com/versionone/VersionOne.SDK.Python'
p1033
aS'https://m.facebook.com/notes/kent-beck/taming-complexity-with-reversibility/1000330413333156'
p1034
aS'http://www.lifehack.org/articles/technology/the-100-most-useful-websites-the-internet.html'
p1035
aS'http://programminghistorian.org/lessons/intro-to-beautiful-soup'
p1036
aS'http://steveworsley.com/on/the-search-for-the-perfect-to-do-list'
p1037
aS'http://lifehacker.com/top-10-skills-you-need-at-work-that-have-nothing-to-do-1738449552'
p1038
aS'http://www.handbooks.graduate.ucf.edu/hb/handbook.aspx?id=1148&hid=3306'
p1039
aS'http://www.roehampton.ac.uk/cairo/'
p1040
aS'http://vega.github.io/'
p1041
aS'http://en.wikipedia.org/wiki/Viable_System_Model'
p1042
aS'http://blog.sleeplessbeastie.eu/2012/04/29/virtualbox-convert-raw-image-to-vdi-and-otherwise/'
p1043
aS'https://pubs.vmware.com/Release_Notes/en/workstation/12pro/workstation-121-release-notes.html'
p1044
aS'http://www.acm.org/'
p1045
aS'http://www.graphviz.org/Download_windows.php'
p1046
aS'http://ndpsoftware.com/git-cheatsheet.html#loc=stash;'
p1047
aS'http://ndpsoftware.com/git-cheatsheet.html#loc=remote_repo;'
p1048
aS'https://en.m.wikipedia.org/wiki/Angel_problem'
p1049
aS'https://18f.gsa.gov/2015/10/05/managing-technical-debt/'
p1050
aS'http://www.wsj.com/articles/the-science-of-making-friends-1460992572'
p1051
aS'https://github.com/antontarasenko/smq/blob/master/reports/hackernews-links-in-comments.md'
p1052
aS'https://github.com/dloss/python-pentest-tools'
p1053
aS'https://github.com/m57/dnsteal'
p1054
aS'https://github.com/samyk/usbdriveby'
p1055
aS'https://github.com/StackStorm/st2'
p1056
aS'https://github.com/staltz/flux-challenge'
p1057
aS'https://github.com/cyanogenmod'
p1058
aS'https://github.com/kaizouman/linux-shlib-link-samples'
p1059
aS'https://github.com/0xAX/linux-insides/blob/master/SysCall/syscall-4.md'
p1060
aS'https://github.com/openSUSE'
p1061
aS'https://github.com/0xAX'
p1062
aS'https://www.usenix.org/legacy/events/sec03/tech/full_papers/crosby/crosby_html/index.html'
p1063
aS'http://intronetworks.cs.luc.edu/current/html/index.html'
p1064
aS'http://m.imgur.com/account/ange4771/albums'
p1065
aS'http://anubis.iseclab.org/'
p1066
aS'https://ibotpeaches.github.io/Apktool/'
p1067
aS'http://cybercoyote.org/security/av-top.htm'
p1068
aS'https://hacks.mozilla.org/2015/12/compiling-to-webassembly-its-happening/'
p1069
aS'https://code.google.com/p/corkami/'
p1070
aS'http://practicalmalwareanalysis.com/2012/03/25/decorating-your-disassembly/'
p1071
aS'http://dnsdumpster.com/'
p1072
aS'http://resources.infosecinstitute.com/downloads/'
p1073
aS'https://www.cyphar.com/blog/post/getting-into-linux-kernel-development'
p1074
aS'http://www.hackersonlineclub.com/hacking-tools'
p1075
aS'http://mods-n-hacks.wonderhowto.com/how-to/crack-wi-fi-passwords-for-beginners-0139793/'
p1076
aS'http://null-byte.wonderhowto.com/how-to/hack-wpa-wifi-passwords-by-cracking-wps-pin-0132542/'
p1077
aS'http://blog.invisiblethings.org/2015/10/27/x86_harmful.html'
p1078
aS'http://www.hackersonlineclub.com/intrusion-detection-system-ids'
p1079
aS'https://isc.sans.edu/forums/diary/JavaScriptHTML+droppers+as+a+targeted+attack+vector/3400'
p1080
aS'http://tools.kali.org/tools-listing'
p1081
aS'http://www.hackersonlineclub.com/metasploit-tutorial/metasploit-cheatsheet'
p1082
aS'http://netflix.github.io/'
p1083
aS'http://map.norsecorp.com/'
p1084
aS'http://m.imgur.com/a/N5bqg'
p1085
aS'http://pythonarsenal.erpscan.com/'
p1086
aS'https://realm.io/news/conrad-kramer-reverse-engineering-ios-apps-lyft/'
p1087
aS'http://www.sans.org/critical-security-controls'
p1088
aS'https://blogs.mcafee.com/mcafee-labs/security-101-attack-vectors-take-advantage-of-user-interaction'
p1089
aS'http://packetstormsecurity.com/files/tags/tool/'
p1090
aS'http://m.spiegel.de/international/world/a-1013409-2.html'
p1091
aS'http://www.apkforandroids.com/tomtom-maps-hack-android/'
p1092
aS'http://packetstormsecurity.com/files/98831/'
p1093
aS'https://sploitfun.wordpress.com/2015/02/10/understanding-glibc-malloc/'
p1094
aS'http://samy.pl/usbdriveby/'
p1095
aS'http://www.cert.org/blogs/certcc/post.cfm?EntryID=178'
p1096
aS'http://www.howtogeek.com/204697/wi-fi-security-should-you-use-wpa2-aes-wpa2-tkip-or-both/'
p1097
aS'http://www.wonderhowto.com/'
p1098
aS'http://www.visual6502.org/'
p1099
aS'https://www.kde.org/'
p1100
aS'https://www.kde.org/applications/graphics/kgraphviewer/'
p1101
aS'https://techbase.kde.org/Development/Tutorials'
p1102
aS'http://linux.yyz.us/git-howto.html#getting_started'
p1103
aS'http://kernelnewbies.org/KernelHacking'
p1104
aS'http://kernelnewbies.org/Linux_4.4'
p1105
aS'http://kernelnewbies.org/Linux_4.4-DriversArch'
p1106
aS'http://www.linuxfromscratch.org/lfs/view/7.0/'
p1107
aS'http://kernelnewbies.org/'
p1108
aS'http://www.linuxfoundation.org/collaborate/workgroups/lsb'
p1109
aS'http://spark.apache.org/'
p1110
aS'https://www.docker.com/'
p1111
aS'http://brew.sh/'
p1112
aS'https://github.com/rabbitmq/internals/'
p1113
aS'http://python-eve.org/quickstart.html'
p1114
aS'https://www.coinbase.com/'
p1115
aS'http://www.graphviz.org/Download_macos.php'
p1116
aS'https://blog.barricade.io/running-a-modern-infrastructure-stack/'
p1117
aS'https://jena.apache.org/download/index.cgi'
p1118
aS'http://lists.opensuse.org/opensuse-factory/2015-07/msg00692.html'
p1119
aS'http://opensuse-guide.org/'
p1120
aS'http://opensuse-guide.org/codecs.php'
p1121
aS'http://opensuse-guide.org/switching.php'
p1122
aS'https://activedoc.opensuse.org/'
p1123
aS'https://www.suse.com/documentation/sled-12/singlehtml/book_sle_admin/book_sle_admin.html'
p1124
aS'https://activedoc.opensuse.org/book/opensuse-reference/chapter-2-remote-installation#sec.deployment.remoteinst.boot.pxe'
p1125
aS'https://activedoc.opensuse.org/book/opensuse-reference/chapter-6-32-bit-and-64-bit-applications-in-a-64-bit-system-environment'
p1126
aS'https://en.opensuse.org/Features'
p1127
aS'http://download.opensuse.org/tumbleweed/repo/src-oss/suse/src/'
p1128
aS'https://www.opensuse.org/'
p1129
aS'http://www.ulduzsoft.com/2014/11/opensuse-13-2-do-not-use-btrfs-as-rootfs/'
p1130
aS'https://forums.opensuse.org/content.php/38-Swerdna-Nvidia-openSUSE-Tumbleweed-Hard-Way'
p1131
aS'http://opensuse.github.io/'
p1132
aS'http://opensuse-community.org/'
p1133
aS'https://activedoc.opensuse.org/book/opensuse-virtualization-with-kvm'
p1134
aS'https://en.opensuse.org/openSUSE:Leap'
p1135
aS'https://en.opensuse.org/openSUSE:Tumbleweed_installation'
p1136
aS'https://en.opensuse.org/SDB:NVIDIA_the_hard_way'
p1137
aS'http://software.opensuse.org/package/motion'
p1138
aS'https://www.suse.com/documentation/sles-12/book_sle_admin/data/sec_uefi_secboot.html'
p1139
aS'https://en.opensuse.org/XINE'
p1140
aS'https://www.suse.com/'
p1141
aS'http://www.linux-magazine.com/'
p1142
aS'http://www.howtogeek.com/190217/10-alternative-pc-operating-systems-you-can-install/'
p1143
aS'http://devzum.com/2014/12/13/14-best-google-chrome-extensions-developers/'
p1144
aS'https://18f.gsa.gov/dashboard/'
p1145
aS'https://upload.wikimedia.org/wikipedia/commons/thumb/1/1b/Linux_Distribution_Timeline.svg/2220px-Linux_Distribution_Timeline.svg.png'
p1146
aS'http://www.thegeekstuff.com/2010/11/50-linux-commands/'
p1147
aS'http://mobile.datamation.com/open-source/50-open-source-tools-tech-companies-love-1.html?google_editors_picks=true'
p1148
aS'https://pdos.csail.mit.edu/6.828/2014/labs/lab1/'
p1149
aS'http://www.tecmint.com/8-useful-x-window-gui-based-linux-commands-part-i/'
p1150
aS'http://www.alexonlinux.com/'
p1151
aS'http://alsa.opensrc.org/MultipleCards'
p1152
aS'http://www.linuxtopia.org/online_books/an_introduction_to_gcc/gccintro_18.html'
p1153
aS'https://medium.com/@chrstphrhrt/microservices-the-unix-philosophy-and-the-richardson-maturity-model-425abed44826#.he7q1lsy5'
p1154
aS'https://wiki.gnome.org/Apps/Dia'
p1155
aS'http://unix.stackexchange.com/questions/139513/how-to-clear-journalctl'
p1156
aS'http://mywiki.wooledge.org/BashPitfalls'
p1157
aS'https://docs.docker.com/articles/dockerfile_best-practices/'
p1158
aS'http://www.linuxfromscratch.org/blfs/view/cvs/index.html'
p1159
aS'http://dev.chromium.org/for-testers/bug-reporting-guidelines'
p1160
aS'https://utcc.utoronto.ca/~cks/space/blog/unix/UnixEarlyStrings'
p1161
aS'http://blog.chromium.org/'
p1162
aS'http://trac.clfs.org/'
p1163
aS'https://cmake.org/cmake-tutorial/'
p1164
aS'http://www.csfieldguide.org.nz/'
p1165
aS'https://en.m.wikibooks.org/wiki/Configuring_Sound_on_Linux'
p1166
aS'http://en.m.wikibooks.org/wiki/Configuring_Sound_on_Linux/HW_Address'
p1167
aS'http://ellcc.org/blog/?p=26435'
p1168
aS'http://wiki.cyanogenmod.org/w/CyanoBoot'
p1169
aS'https://dbus.freedesktop.org/doc/dbus-tutorial.html'
p1170
aS'http://www.datamation.com/'
p1171
aS'http://www.linuxbrigade.com/delete-files-x-days-old/'
p1172
aS'http://www.bottomupcs.com/elf.html'
p1173
aS'http://elinux.org/Main_Page'
p1174
aS'http://enlightenment.org/'
p1175
aS'http://www.schabell.org/2014/12/3-reasons-you-need-new-jboss-travel-agency.html'
p1176
aS'http://ashimg.tripod.com/example.html'
p1177
aS'http://home.adelphi.edu/sbloch/class/271/examples/lexyacc/'
p1178
aS'http://www.cs.man.ac.uk/~pjj/cs212/ex5_hint.html'
p1179
aS'http://www.alexonlinux.com/few-problems-that-you-may-encounter-when-booting-linux'
p1180
aS'http://www.gotothings.com/linux/framebuffer-linux.htm'
p1181
aS'http://dev.chromium.org/getting-involved'
p1182
aS'https://sourceware.org/binutils/docs-2.24/ld/index.html#Top'
p1183
aS'http://www.math.fsu.edu/~okhanmoh/gnu_linux_notes.html'
p1184
aS'https://www.gnupg.org/download/integrity_check.html'
p1185
aS'https://code.google.com/'
p1186
aS'https://ksmanis.wordpress.com/projects/grub2-editor/'
p1187
aS'https://en.m.wikibooks.org/wiki/Guide_to_X11'
p1188
aS'http://www.tecmint.com/install-and-configure-kvm-in-linux/'
p1189
aS'http://www.sysprobs.com/export-vmware-virtual-machine-ovf-import-virtualbox'
p1190
aS'http://www.therandombits.com/1/how-to-install-nvidia-driver-for-gtx-970-in-opensuse-13-2/'
p1191
aS'https://www.digitalocean.com/community/tutorials/how-to-use-systemctl-to-manage-systemd-services-and-units'
p1192
aS'http://www.revsys.com/writings/quicktips/ssh-tunnel.html'
p1193
aS'https://www.kernel.org/doc/Documentation/fb/framebuffer.txt'
p1194
aS'https://www.kernel.org/doc/Documentation/fb/framebuffer.txt'
p1195
aS'http://www.redhat.com/en/insights/internet-of-things?intcmp=70160000000f1bqAAA'
p1196
aS'https://0xax.gitbooks.io/linux-insides/content/index.html'
p1197
aS'http://klaig.blogspot.com/2012/09/setup-fancy-development-environment-on.html'
p1198
aS'http://www.gotothings.com/linux/index.htm'
p1199
aS'http://tldp.org/HOWTO/XDMCP-HOWTO/index.html'
p1200
aS'http://www.cyberciti.biz/faq/unix-linux-bash-get-time/'
p1201
aS'http://www.linuxdoc.org/'
p1202
aS'http://blog.cr4.sh/2015/07/building-reliable-smm-backdoor-for-uefi.html'
p1203
aS'http://opendesktop.org/content/show.php?content=168058'
p1204
aS'http://www.freedesktop.org/wiki/Software/PulseAudio/Documentation/User/Network/'
p1205
aS'https://kate-editor.org/2013/02/18/new-plugins-to-the-kate-utils-to-python-javascript-django-and-xml/'
p1206
aS'http://www.aymerick.com/2013/09/20/nfs_client_on_raspberrypi.html'
p1207
aS'http://openbuildservice.org/'
p1208
aS'http://www.opensemanticsearch.org/'
p1209
aS'http://tldp.org/HOWTO/Program-Library-HOWTO/index.html'
p1210
aS'https://www.cs.cf.ac.uk/Dave/C/'
p1211
aS'https://wiki.archlinux.org/index.php/PulseAudio/Configuration'
p1212
aS'http://www.qt.io/developers/'
p1213
aS'http://wololo.net/2016/04/02/release-fully-operational-dlclose-exploit-linux-for-ps4-by-kr105/'
p1214
aS'http://www.shellhacks.com/en/Running-Commands-on-a-Remote-Linux-Server-over-SSH'
p1215
aS'http://jsdelfino.blogspot.com/2010/11/my-vi-configuration-file.html'
p1216
aS'http://www.windowsecurity.com/whitepapers/unix_security/Securing_X_Windows.html#2.0'
p1217
aS'http://www.linuxintro.org/wiki/Set_up_a_Webcam_with_Linux'
p1218
aS'http://blog.scphillips.com/posts/2013/01/sound-configuration-on-raspberry-pi-with-alsa/'
p1219
aS'http://blog.trackets.com/2014/05/17/ssh-tunnel-local-and-remote-port-forwarding-explained-with-examples.html'
p1220
aS'http://www.tldp.org/'
p1221
aS'https://www.kernel.org/'
p1222
aS'http://opendesktop.org/'
p1223
aS'http://www.muppetlabs.com/~breadbox/software/tiny/home.html'
p1224
aS'http://www.videolan.org/vlc/index.html'
p1225
aS'https://virt-manager.org/'
p1226
aS'http://vladmihalcea.com/2014/12/23/a-beginners-guide-to-transaction-isolation-levels-in-enterprise-java/'
p1227
aS'https://www.videolan.org/doc/vlc-user-guide/en/index.html'
p1228
aS'http://humdi.net/vnstat/'
p1229
aS'https://dzone.com/links/want_to_try_docker_but_dont_know_where_to_start_w.html'
p1230
aS'https://build.opensuse.org/'
p1231
aS'http://www.linuxfromscratch.org/'
p1232
aS'http://www.x.org/wiki/'
p1233
aS'http://xquartz.macosforge.org/landing/'
p1234
aS'http://ryanstutorials.net/linuxtutorial/'
p1235
aS'http://www.rebol.com/docs/ssh-auto-login.html'
p1236
aS'http://www.tecmint.com/tag/linux-tricks/'
p1237
aS'http://www.gnu.org/software/libtool/manual/libtool.html'
p1238
aS'https://en.m.wikibooks.org/wiki/Configuring_Sound_on_Linux/Pulse_Audio/Remote_server'
p1239
aS'http://backtrace.io/blog/blog/2016/04/22/elf-shared-library-injection-forensics/'
p1240
aS'https://packages.debian.org/eo/jessie/doc/'
p1241
aS'http://disney.es/'
p1242
aS'http://www.rundisney.com/'
p1243
aS'https://www.espnwwos.com/'
p1244
aS'http://www.disneyyouth.com/'
p1245
aS'https://www.disneyweddings.com/'
p1246
aS'http://disneyweddings.disney.go.com/honeymoons'
p1247
aS'http://www.disneygoldenoak.com/'
p1248
aS'https://www.disneyweddings.com/engagements/'
p1249
aS'https://www.disneydreamersacademy.com/'
p1250
aS'http://www.disneyconventiontickets.com/'
p1251
aS'http://mydisneydiscovery.com/'
p1252
aS'https://www.disneymeetings.com/'
p1253
aS'http://disney.com/'
p1254
aS'http://disneyparks.disney.go.com/?DISCID=DI_mtt_chrome'
p1255
aS'https://www.disneytravelagents.com/portal/site/dta-domestic'
p1256
aS'http://disneyparks.disney.go.com/canada-language-selection/'
p1257
aS'http://www.disneylandparis.com/en-us/'
p1258
aS'http://thewaltdisneycompany.com/'
p1259
aS'http://resorts.disney.go.com/aulani-hawaii-resort/rooms-offers/special-offers/?CMP=KNC-Aulani_Branded_FL_ad120814a|G|4157700.AL.AM.01.01&keyword_id=shOklmtUu_dc|alunia|43315746466|p|1540al514026'
p1260
aS'https://disneyland.disney.go.com/'
p1261
aS'http://disney.pt/'
p1262
aS'http://disney.co.uk/'
p1263
aS'http://www.tokyodisneyresort.jp/en/'
p1264
aS'https://www.hongkongdisneyland.com/'
p1265
aS'http://disneyvacationclub.disney.go.com/'
p1266
aS'http://www.waltdisney.org/'
p1267
aS'http://thewaltdisneycompany.com/'
p1268
aS'http://www.wdworld.com/'
p1269
aS'http://www.studioscentral.com/'
p1270
aS'http://disneycruise.disney.go.com/'
p1271
aS'http://help.disney.com/en_US/Games'
p1272
aS'http://help.disney.com/en_US/Disney-Infinity'
p1273
aS'http://help.disney.com/en_US/clubpenguin'
p1274
aS'http://help.disney.com/en_US/Disney-Sites'
p1275
aS'http://help.disney.com/en_US/Apps'
p1276
aS'http://help.disney.com/en_US/Marvel'
p1277
aS'http://movies.disney.com/'
p1278
aS'https://disneymovieclub.go.com/webapp/wcs/stores/servlet/AcquisitionBrowseView?catalogId=10051&categoryId=5024504&langId=-1&storeId=10001&krypto=E%2BgZwVpuwob24QpLihspWq6XsDk5Zcj0AUwWpSYU%2FmyvEtMpcs5zW2dg05LDTjUZwEbYn2Va0DcY%0AhuQ7Cyr%2FTQ%3D%3D&ddkey=https:AcquisitionBrowseView'
p1279
aS'http://help.disney.com/en_US/Disney-Sites'
p1280
aS'http://movies.disney.com/'
p1281
aS'http://www.disneymovierewards.go.com/?cmp=SYN_DMC_HomeFooter'
p1282
aS'http://princess.disney.com/'
p1283
aS'https://disneyworld.disney.go.com/faq/'
p1284
aS'http://docs.sdl.com/LiveContent/web/pub.xql?action=home&pub=SDL%20Tridion%20Reference%20Implementation-v1&lang=en-US#addHistory=true&filename=GUID-C01E23A0-80B6-40A8-AC8C-BF558EEE01A7.xml&docid=GUID-C01E23A0-80B6-40A8-AC8C-BF558EEE01A7&inner_id=&tid=&query=&scope=&resource=&toc=false&eventType=lcContent.loadDocGUID-C01E23A0-80B6-40A8-AC8C-BF558EEE01A7'
p1285
aS'http://www.tutorialspoint.com/management_concepts/agile_project_management.htm'
p1286
aS'http://www.hiddenmickeys.org/wdw/Contacts.html'
p1287
aS'https://mobile-east.disney.com/owa/auth/logon.aspx?replaceCurrent=1&url=https%3a%2f%2fmobile-east.disney.com%2fowa%2f'
p1288
aS'https://blockoutdates.disney.com/parks-florida/#Magic-Kingdom'
p1289
aS'https://backlot.disney.com/docs/DOC-24015'
p1290
aS'http://www.nordicsemi.com/eng/Products/2.4GHz-RF/nRF24LE1'
p1291
aS'https://enterpriseportal.disney.com/site/team/index.jsp'
p1292
aS'https://www.linkedin.com/in/tyvaughan'
p1293
aS'http://www.freewarepos.net/tag/walt-disney-productions/'
p1294
aS'http://www.businesswire.com/news/home/20080909005342/en/MATRA-Systems-Introduces-FREEDOM-Solution-Center-Software'
p1295
aS'http://www.instructables.com/id/15-RFDuino-Bluetooth-LE-with-Python-or-Android/'
p1296
aS'http://www.addicore.com/mobile/product.aspx?ProductCode=112&404;http://www.addicore.com:80/product-p/112.htm='
p1297
aS'http://www.circuitstoday.com/4-great-books-to-study-basic-electronics'
p1298
aS'http://www.digikey.com/en/resources/conversion-calculators/conversion-calculator-resistor-color-code-5-band'
p1299
aS'http://www.instructables.com/id/555-Timer/#step3'
p1300
aS'http://www.555-timer-circuits.com/#learning'
p1301
aS'http://www.righto.com/2016/02/555-timer-teardown-inside-worlds-most.html'
p1302
aS'http://www.instructables.com/id/8x8-LED-matrix/'
p1303
aS'http://www.technologystudent.com/'
p1304
aS'http://www.crazy-audio.com/2013/09/adau1442-prototyping-pcb/'
p1305
aS'http://www.allaboutcircuits.com/'
p1306
aS'https://software.intel.com/en-us/videos/introduction-to-intel-tools-for-android-developers?cid=&utm_medium=Syndication&utm_source=Outbrain&utm_campaign=Android_ASMO_Q3_15_Training_Videos_IH&Source=outbrain_4556270'
p1307
aS'https://archive.org/details/AtariStarRaidersSourceCode'
p1308
aS'http://www.build-electronic-circuits.com/basic-electronic-components/'
p1309
aS'http://www.electronics-tutorials.ws/sitemap'
p1310
aS'http://www.electronics-tutorials.ws/counter/bcd-counter-circuit.html'
p1311
aS'http://www.build-electronic-circuits.com/blinking-led-circuit/'
p1312
aS'http://www.tomshardware.com/reviews/bluetooth-technology-101,4464.html'
p1313
aS'http://www.epemag.wimborne.co.uk/cold-soldering2.htm'
p1314
aS'http://lcamtuf.coredump.cx/electronics/'
p1315
aS'http://www.hobbyprojects.com/sequential_logic/the_decade_counter.html'
p1316
aS'http://m.linuxjournal.com/content/designing-electronics-linux'
p1317
aS'http://www.rs-online.com/designspark/electronics/'
p1318
aS'http://www.digikey.com/?&WT.srch=1'
p1319
aS'http://www.technologystudent.com/elec1/dual1.htm'
p1320
aS'http://www.allaboutcircuits.com/projects/P20/'
p1321
aS'http://en-us.fluke.com/products/digital-multimeters/fluke-117-digital-multimeter.html'
p1322
aS'http://www.rapidtables.com/electric/electrical_symbols.htm'
p1323
aS'http://www.dummies.com/how-to/content/electronics-components-oscillator-circuits.html'
p1324
aS'http://www.eeherald.com/section/design-guide/esmod1.html'
p1325
aS'http://www.technologystudent.com/elec1/elecex.htm'
p1326
aS'http://www.learningaboutelectronics.com/Projects/'
p1327
aS'http://www.electronics-lab.com/'
p1328
aS'http://www.engbedded.com/fusecalc/'
p1329
aS'http://www.freescale.com/'
p1330
aS'http://opensourceforu.efytimes.com/2013/12/getting-started-open-source-circuit-simulator/'
p1331
aS'http://www.aesham.com/'
p1332
aS'http://www.aesham.com/aes-orlando'
p1333
aS'http://www.heathkit-museum.com/hvmham.shtml'
p1334
aS'https://github.com/ktechlab/ktechlab/wiki'
p1335
aS'http://wilsonminesco.com/'
p1336
aS'http://www.instructables.com/id/How-to-make-a-555-timer-chip-circuit/?ALLSTEPS'
p1337
aS'https://learn.sparkfun.com/tutorials/how-to-use-an-oscilloscope'
p1338
aS'http://www.tau.ac.il/~stoledo/lego/i2c-8574-l272/'
p1339
aS'https://learn.sparkfun.com/'
p1340
aS'http://www.learningaboutelectronics.com/'
p1341
aS'https://medium.com/@cdixon/lessons-from-the-pc-video-game-industry-3350bb7713de'
p1342
aS'http://www.ibiblio.org/kuphaldt/electricCircuits/index.htm'
p1343
aS'http://www.ladyada.net/'
p1344
aS'http://www.makershed.com/?avad=130635_da3ba262&utm_source=www.build-electronic-circuits.com&utm_medium=affiliate'
p1345
aS'http://www.circuitstoday.com/tag/most-popular-circuits'
p1346
aS'http://www.calvin.edu/~svleest/circuitExamples/OpAmps/'
p1347
aS'https://processing.org/'
p1348
aS'http://www.suptronics.com/xseries/x300.html'
p1349
aS'http://www.petervis.com/Raspberry_PI/Raspberry_Pi_Dead/Raspberry_Pi_Fuse.html'
p1350
aS'http://garethhayes.net/gnu-radio-for-raspberry-pi/'
p1351
aS'http://www.circuitstoday.com/resistor-color-code-chart'
p1352
aS'http://raspberrypi-aa.github.io/session3/spi.html'
p1353
aS'http://www.eleccircuit.com/simple-electronic-circuits/'
p1354
aS'http://www.build-electronic-circuits.com/simple-electronic-circuits'
p1355
aS'http://www.skycraftsurplus.com/electronics.aspx'
p1356
aS'http://robotlinking.com/Software.html'
p1357
aS'http://www.allaboutcircuits.com/textbook/'
p1358
aS'http://www.build-electronic-circuits.com/amplifier-circuit-diagram/'
p1359
aS'http://www.righto.com/2015/10/inside-ubiquitous-741-op-amp-circuits.html'
p1360
aS'http://www.hobbyprojects.com/quick_circuits_reference.html'
p1361
aS'http://www.smashingrobotics.com/useful-tools-for-drawing-electrical-circuits/'
p1362
aS'http://www.talkingelectronics.com/'
p1363
aS'http://www.cadsoftusa.com/eagle-pcb-design-software/about-eagle/'
p1364
aS'http://www.wirelessinnovation.org/'
p1365
aS'http://wiring.org.co/'
p1366
aS'http://www.falstad.com/circuit/e-index.html#multivib-a'
p1367
aS'http://www.allaboutcircuits.com/projects/home-pcb-fabrication/'
p1368
aS'http://www.digikey.com/en/resources/conversion-calculators/conversion-calculator-resistor-color-code-4-band'
p1369
aS'https://startingelectronics.org/'
p1370
aS'http://www.learnabout-electronics.org/index.php'
p1371
aS'http://education.rec.ri.cmu.edu/'
p1372
aS'http://www.radio-electronics.com/learning-training-courses/'
p1373
aS'http://www.elenco.com/product/educational'
p1374
aS'http://robotlinking.com/'
p1375
aS'https://www.nostarch.com/carhacking'
p1376
aS'http://www.allaboutcircuits.com/projects/ble-using-nrf51-arm-gcc-build-environment/'
p1377
aS'http://www.microchip.com/'
p1378
aS'http://www.falstad.com/circuit/e-multivib-a.html'
p1379
aS'https://www.ffmpeg.org/'
p1380
aS'http://centralfloridafair.com/flea-market/'
p1381
aS'http://www.visitorsfleamarket.com/'
p1382
aS'http://www.ac6v.com/antprojects.htm'
p1383
aS'http://www.wa5vjb.com/references.html'
p1384
aS'http://www.linux-ax25.org/wiki/APRS'
p1385
aS'https://pypi.python.org/pypi/aprs/4.0.0'
p1386
aS'http://findu.com/'
p1387
aS'http://www.oz9aec.net/index.php/gnu-radio-blog/469-aprs-reception-with-gqrx-and-funcube-dongle'
p1388
aS'https://groups.google.com/forum/#!forum/aprsfi'
p1389
aS'http://www.aprs.org/doc/APRS101.PDF'
p1390
aS'https://en.m.wikipedia.org/wiki/Atmospheric_pressure'
p1391
aS'http://www.sigidwiki.com/wiki/Automatic_Packet_Reporting_System_(APRS)'
p1392
aS'http://gqrx.dk/tag/decoder'
p1393
aS'http://info.aprs.net/index.php?title=Frequencies'
p1394
aS'https://code.google.com/archive/p/trackuino/'
p1395
aS'http://aprs.fi/#!lat=28.54940&lng=-81.77290'
p1396
aS'http://aprs.gids.nl/nmea/'
p1397
aS'https://hugosprojects.wordpress.com/2014/03/15/implementing-aprs/'
p1398
aS'http://www.isstracker.com/'
p1399
aS'http://unsigned.io/projects/microaprs/'
p1400
aS'http://microsat.com.pl/'
p1401
aS'http://www.openaprs.net/xml.php'
p1402
aS'https://www.tapr.org/software_library.php?dir=/software_lib/sat'
p1403
aS'https://www.tapr.org/pub_wdcdat.html'
p1404
aS'http://aprs.fi/page/about_technical'
p1405
aS'https://github.com/trackuino/trackuino'
p1406
aS'http://www.aprs.org/aprs-dtmf-gate.html'
p1407
aS'https://xastir.org/index.php/Main_Page'
p1408
aS'http://www.aprs.net/vm/DOS/SYMBOLS.HTM'
p1409
aS'https://people.csail.mit.edu/albert/bluez-intro/index.html'
p1410
aS'https://aprajshekhar.wordpress.com/2010/05/23/bluetooth-programming-in-python-network-programming-using-rfcomm/'
p1411
aS'https://people.csail.mit.edu/albert/bluez-intro/c212.html'
p1412
aS'https://help.ubuntu.com/community/BluetoothSetup'
p1413
aS'https://github.com/denisigo/android-linux-bluetooth'
p1414
aS'http://www.denisigo.com/2014/08/example-of-bluetooth-communication-between-android-and-linux/'
p1415
aS'https://github.com/karulis/pybluez'
p1416
aS'https://en.m.wikipedia.org/wiki/List_of_Bluetooth_protocols'
p1417
aS'https://learn.adafruit.com/bluefruit-le-python-library/overview'
p1418
aS'https://www.raspberrypi.org/forums/viewtopic.php?t=102273&p=708645'
p1419
aS'http://www.oracle.com/technetwork/systems/bluetoothintro-156415.html'
p1420
aS'http://www.earlevel.com/main/2002/08/31/a-gentle-introduction-to-the-fft/'
p1421
aS'http://www.aprs.net/vm/DOS/PROTOCOL.HTM'
p1422
aS'https://inst.eecs.berkeley.edu/~ee123/sp14/lab3/Lab3-Part_III_Radio_Comm.html'
p1423
aS'http://routerguide.net/motorola-surfboard-sbg6580-bridge-mode-guide/'
p1424
aS'http://hyperphysics.phy-astr.gsu.edu/hbase/audio/bcast.html'
p1425
aS'http://www.dslreports.com/forum/r26705032-How-to-Bridge-a-Motorola-SBG6580'
p1426
aS'http://wiki.linuxaudio.org/apps/start'
p1427
aS'https://www.reddit.com/r/RTLSDR/'
p1428
aS'http://www.nordicsemi.com/eng/Products/Bluetooth-Smart-Bluetooth-low-energy/nRF51-IoT-SDK'
p1429
aS'http://www.wxtoimg.com/'
p1430
aS'http://visual-dsp.switchb.org/'
p1431
aS'http://notes.secretsauce.net/notes/2014/07/25_decoding-p25-with-rtl-sdr-on-debian.html'
p1432
aS'http://dangerousprototypes.com/category/digital-radio-data/'
p1433
aS'https://www.coursera.org/course/dsp'
p1434
aS'http://www.george-smart.co.uk/wiki/Digital_Speech_Decoder'
p1435
aS'http://www.dsdplus.com/'
p1436
aS'http://www.airport-data.com/aircraft/N82844.html'
p1437
aS'http://flightaware.com/live/flight/AAL381'
p1438
aS'http://www.aprsmail.org/'
p1439
aS'http://flightaware.com/live/flight/N82844'
p1440
aS'http://flightaware.com/adsb/piaware/install'
p1441
aS'http://flightaware.com/adsb/piaware/install'
p1442
aS'http://flightaware.com/live/flight/VOI935'
p1443
aS'http://zone.ni.com/reference/en-XX/help/372416B-01/svtconcepts/fft_funda/'
p1444
aS'http://www.ece.uvic.ca/~elec350/lab_manual/ar01s02s02.html'
p1445
aS'http://dangerousprototypes.com/2013/08/28/dsd-block-for-gnu-radio/'
p1446
aS'https://github.com/gnuradio'
p1447
aS'http://gnuradio.squarespace.com/examples'
p1448
aS'http://gnuradio.squarespace.com/gr-tutorial/'
p1449
aS'http://dangerousprototypes.com/tag/gnu-radio/'
p1450
aS'https://jeffskinnerbox.wordpress.com/2013/07/08/gnu-radio-and-gqrx-sdr-receiver/'
p1451
aS'http://www.ece.uvic.ca/~elec350/grc_doc/index.html'
p1452
aS'https://gnuradio.org/doc/doxygen/page_digital.html'
p1453
aS'https://gnuradio.org/redmine/projects/gnuradio/wiki/GNURadioLiveDVD'
p1454
aS'http://gnuradio.org/redmine/projects/gnuradio/wiki/Guided_Tutorial_PSK_Demodulation'
p1455
aS'https://gnuradio.org/redmine/projects/gnuradio/wiki/InstallingGRFromSource'
p1456
aS'https://gnuradio.org/redmine/projects/gnuradio/wiki/Tutorials'
p1457
aS'http://hackaday.com/2015/11/12/your-first-gnu-radio-receiver-with-sdrplay/'
p1458
aS'https://groups.google.com/forum/m/#!forum/gqrx'
p1459
aS'http://192.168.1.3:8585/annotated.html'
p1460
aS'http://gqrx.dk/doc/practical-tricks-and-tips#more-229'
p1461
aS'http://gqrx.dk/blog/satellite-telemetry-decoding-on-linux'
p1462
aS'http://www.nws.noaa.gov/nwr/coverage/ccov.php?State=FL'
p1463
aS'http://www.nws.noaa.gov/nwr/coverage/site2.php?State=FL&Site=KIH63'
p1464
aS'http://noaasis.noaa.gov/NOAASIS/ml/status.html'
p1465
aS'http://www.oz9aec.net/index.php/gnu-radio-blog/index.php/gnu-radio-blog/451-howto-receive-and-decode-noaa-apt-images-with-the-funcube-dongle-and-gqrx'
p1466
aS'http://weather.noaa.gov/fax/marsh.shtml'
p1467
aS'http://v2.sdr-radio.com/Download.aspx'
p1468
aS'http://www.aprs.org/'
p1469
aS'https://pypi.python.org/pypi/aprslib/0.6.35'
p1470
aS'http://www.aresdb.com/'
p1471
aS'https://github.com/argilo/gr-dsd'
p1472
aS'http://audacity.sourceforge.net/'
p1473
aS'http://www.aprs.net/vm/DOS/INDEX.HTM'
p1474
aS'http://www.sdr-radio.com/Software/Data-Decoder'
p1475
aS'http://marcinkowski.ca/blog/2014/02/19/decoding-dmr-radio-using-rtlsdr-gqrx-and-pulseaudio'
p1476
aS'https://github.com/demantz/RFAnalyzer'
p1477
aS'http://ham.stackexchange.com/questions/2041/how-can-i-decode-an-afsk-1200-baud-audio-clip-iss'
p1478
aS'https://www.coaa.co.uk/dscdecoder.htm'
p1479
aS'http://hamsoft.ca/pages/dsp-filter.php'
p1480
aS'http://polkares.org/?page_id=198'
p1481
aS'http://www.excitingip.com/'
p1482
aS'http://gqrx.dk/doc/external-applications'
p1483
aS'https://flexradio.3dcartstores.com/FLEX-1500_p_10.html'
p1484
aS'http://www.woodboxradio.com/flex3000.html'
p1485
aS'http://www.flexradio.com/'
p1486
aS'http://crypto.interactive-maths.com/frequency-analysis-breaking-the-code.html'
p1487
aS'http://gnuradio.org/doc/sphinx/index.html'
p1488
aS'http://gqrx.dk/'
p1489
aS'http://hackerwarehouse.com/product/hackrf-one-kit/?gclid=Cj0KEQiAvuWyBRDO_Yzhpv_4nvEBEiQANBdXMrz4uppOy7cEDMfB836FnIbnNjdaDWHvMVdpcyZv3PEaAgGl8P8HAQ'
p1490
aS'http://www.dxzone.com/catalog/Software/Linux/'
p1491
aS'http://search.cpan.org/~hessu/Ham-APRS-FAP-1.19/FAP.pm'
p1492
aS'http://www.blackcatsystems.com/ipad/iPad_HF_FAX_Weather_Fax_App.html'
p1493
aS'https://www.google.com/search?q=how+to+decode+frequency&oq=how+to+decode+frequency&aqs=chrome..69i57j0.24268j0j4&sourceid=chrome-mobile&espv=1&ie=UTF-8'
p1494
aS'https://www.tapr.org/aprsdoc/PROTOCOL.TXT'
p1495
aS'https://www.tapr.org/aprsdoc/PROTOCOL.TXT'
p1496
aS'https://github.com/szechyjs/dsd/wiki/Installation'
p1497
aS'http://www.rtl-sdr.com/iss-packet-repeater-received-with-rtl-sdr/'
p1498
aS'http://k4fc.org/'
p1499
aS'http://cateee.net/lkddb/web-lkddb/VIDEO_EM28XX.html'
p1500
aS'http://en.m.wikipedia.org/wiki/List_of_amateur_radio_modes'
p1501
aS'http://lushprojects.com/circuitjs/'
p1502
aS'https://github.com/martinmarinov/TempestSDR'
p1503
aS'http://pythonhackers.com/p/n1ywb/python-hamtools'
p1504
aS'http://www.nooelec.com/store/hackrf.html?gclid=Cj0KEQiAvuWyBRDO_Yzhpv_4nvEBEiQANBdXMiyrzk0Sz6Rcls4N5vNGpubg0Vln5UetAPKFI052HasaAq_-8P8HAQ'
p1505
aS'http://www.nooelec.com/store/sdr/ham-it-up.html#.UfvuJ-FV7Z8'
p1506
aS'http://www.nooelec.com/store/sdr/sdr-bundles.html'
p1507
aS'https://learn.adafruit.com/reverse-engineering-a-bluetooth-low-energy-light-bulb'
p1508
aS'https://www.google.com/search?q=packet+ham+radio+software+rtl-sdr&oq=packet+ham+radio+software+rtl-sdr&aqs=chrome..69i57.7097j0j4&sourceid=chrome-mobile&espv=1&ie=UTF-8'
p1509
aS'http://polkares.org/'
p1510
aS'http://sourceforge.net/projects/qtmm/'
p1511
aS'https://github.com/robotastic/gr-dsd'
p1512
aS'http://www.rtl-sdr.com/rtl-sdr-radio-scanner-tutorial-decoding-digital-voice-p25-with-dsd/'
p1513
aS'http://rtl-sdr.sceners.org/'
p1514
aS'http://sdrspace.com/'
p1515
aS'http://hackerwarehouse.com/product-tag/software-defined-radio-sdr/'
p1516
aS'http://www.issfanclub.com/image/tid/54'
p1517
aS'https://www.tapr.org/packetradio.html'
p1518
aS'http://www.rtl-sdr.com/big-list-rtl-sdr-supported-software/'
p1519
aS'http://www.ni.com/tutorials/'
p1520
aS'http://www.chace-ortiz.org/umc/software.html'
p1521
aS'http://uz7.ho.ua/packetradio.htm'
p1522
aS'http://www.findu.com/cgi-bin/wxpage.cgi?call=DW2662'
p1523
aS'http://www.peetbros.com/shop/category.aspx?catid=2'
p1524
aS'http://aprsisce.wikidot.com/'
p1525
aS'http://www.winradio.com/home/ads-packet.htm'
p1526
aS'http://www.winradio.com/home/ds.htm'
p1527
aS'http://www.ocares.org/'
p1528
aS'http://www.ka2ddo.org/ka2ddo/YAAC.html'
p1529
aS'https://github.com/yan9yu/sdr'
p1530
aS'http://www.rtl-sdr.com/freqwatch-rtl-sdr-frequency-scanner-recorder/'
p1531
aS'http://sdr.osmocom.org/trac/wiki/GrOsmoSDR'
p1532
aS'https://www.reddit.com/r/RTLSDR/comments/1kpf3m/new_utility_rtl_power'
p1533
aS'http://kmkeen.com/rtl-power/'
p1534
aS'http://alwaysoverdone.com/tag/rtl_power/'
p1535
aS'http://zolli.altervista.org/rtl_sdr_wide_spectrum/index.html'
p1536
aS'http://www.rtl-sdr.com/rtl-sdr-tutorial-receiving-noaa-weather-satellite-images/'
p1537
aS'http://www.sm5bsz.com/linuxdsp/hware/rtlsdr/rtlsdr.htm'
p1538
aS'http://tools.kali.org/wireless-attacks/rtlsdr-scanner'
p1539
aS'http://sourceforge.net/projects/rtlsdrscanner/?source=directory'
p1540
aS'http://www.rtl-sdr.com/tag/rtlsdr-scanner/'
p1541
aS'http://www.rtl-sdr.com/scaneyes-software-visualizing-listening-archiving-trunked-radio-traffic/'
p1542
aS'http://www.rtl-sdr.com/big-list-rtl-sdr-supported-software/'
p1543
aS'http://wa6pzb.blogspot.com/2015/01/spectrum-surveys-using-rtlpower.html'
p1544
aS'http://heat.wq.lc/#'
p1545
aS'http://gpredict.oz9aec.net/User_Support.php'
p1546
aS'http://www.issfanclub.com/frequencies'
p1547
aS'http://www.isstracker.com/'
p1548
aS'https://en.m.wikipedia.org/wiki/Radiofax'
p1549
aS'http://sv1bsx.50webs.com/antenna-pol/polarization.html'
p1550
aS'http://www.stoff.pl/'
p1551
aS'http://www.sigidwiki.com/wiki/Automatic_Picture_Transmission_(APT)'
p1552
aS'http://users.telenet.be/on4qz/qsstv/manual/installation.html'
p1553
aS'http://www.amateur-radio-wiki.net/index.php?title=SSTV_software'
p1554
aS'http://www.oz9aec.net/'
p1555
aS'http://redbearlab.com/blemini/'
p1556
aS'http://www.d-rats.com/releases/36-d-rats-033-released/'
p1557
aS'http://sourceforge.net/directory/communications/hamradio/os:posix/freshness:recently-updated/'
p1558
aS'http://www.mobilinkd.com/hacking/'
p1559
aS'http://sourceforge.net/projects/hamlib/'
p1560
aS'http://sourceforge.net/directory/communications/hamradio/'
p1561
aS'http://www.dspguide.com/ch12/2.htm'
p1562
aS'http://pyqt.sourceforge.net/Docs/sip4/installation.html'
p1563
aS'http://www.k6ria.net/download.html'
p1564
aS'http://www.hobbyprojects.com/quick_circuits_reference/microcontroller_based_schematics.html'
p1565
aS'http://soundfile.sapp.org/doc/WaveFormat/'
p1566
aS'http://www.microwaves101.com/'
p1567
aS'http://eliasoenal.com/2012/05/24/multimonng/'
p1568
aS'http://www.nist.gov/pml/div688/grp40/wwvb.cfm'
p1569
aS'http://users.telenet.be/on4qz/index.html'
p1570
aS'http://www.orcadxcc.org/index.html'
p1571
aS'http://www.discriminator.nl/pdw/index-en.html'
p1572
aS'https://code.google.com/p/pydemod/'
p1573
aS'http://www.pyqtgraph.org/'
p1574
aS'http://www.radio-electronics.com/'
p1575
aS'http://www.linux-magazine.com/Online/Features/Reading-Weather-Data-with-Software-Defined-Radio'
p1576
aS'http://skywavelinux.com/'
p1577
aS'https://en.m.wikipedia.org/wiki/Superheterodyne_receiver'
p1578
aS'https://en.m.wikipedia.org/wiki/Superheterodyne_transmitter'
p1579
aS'http://www.unitrunker.com/'
p1580
aS'http://www.pe0sat.vgnet.nl/decoding/unix-tlm-decoding/'
p1581
aS'http://unsigned.io/'
p1582
aS'https://code.google.com/p/opendous/wiki/Upconverter'
p1583
aS'http://www.peetbros.com/HTML_Pages/faqs.htm#Q5'
p1584
aS'http://store.hackaday.com/products/wifi-serial-module-esp8266'
p1585
aS'http://eartoearoak.com/software/rtlsdr-scanner'
p1586
aS'http://www.rtl-sdr.com/category/article/'
p1587
aS'https://en.m.wikipedia.org/wiki/Phase-locked_loop'
p1588
aS'http://v2.sdr-radio.com/'
p1589
aS'http://en.m.wikipedia.org/wiki/AptX'
p1590
aS'http://www.yaesu.com/indexVS.cfm?cmd=DisplayProducts&ProdCatID=111&encProdID=25F65DA12CA1FCB444A927CD14417BFD'
p1591
aS'http://www.dwheeler.com/chess-openings/'
p1592
aS'http://www.chess.com/analysis-board-editor'
p1593
aS'http://en.m.wikipedia.org/wiki/Chess_opening'
p1594
aS'http://en.m.wikipedia.org/wiki/Encyclopaedia_of_Chess_Openings'
p1595
aS'http://en.m.wikipedia.org/wiki/Immortal_Game'
p1596
aS'http://www.chessgames.com/player/garry_kasparov.html'
p1597
aS'http://www.fmlainsights.com/'
p1598
aS'http://www.fmlainsights.com/fmla-leave-for-headache-converts-full-time-position-into-part-time-position-employers-shrieks-heard-across-the-country/'
p1599
aS'http://store.steampowered.com/steamos/'
p1600
aS'http://stella.sourceforge.net/development.php'
p1601
aS'http://mamedev.org/'
p1602
aS'http://www.sciencedaily.com/releases/2014/11/141126132639.htm'
p1603
aS'http://anothersample.net/a-cost-consequences-analysis-of-the-effect-of-pregabalin-in-the-treatment-of-peripheral-neuropathic-pain-in-routine-medical-practice-in-primary'
p1604
aS'http://injuryresources.com/brain-injury/injury381.html'
p1605
aS'http://www.additudemag.com/adhd/article/3345.html'
p1606
aS'http://www.ada.gov/qandaeng.htm'
p1607
aS'http://www.mstrust.org.uk/atoz/amitriptyline.jsp'
p1608
aS'https://en.m.wikipedia.org/wiki/Angular_cheilitis'
p1609
aS'http://www.webmd.com/brain/aphasia-causes-symptoms-types-treatments?page=2'
p1610
aS'https://www.nlm.nih.gov/medlineplus/ency/article/000308.htm'
p1611
aS'http://www.spine-health.com/conditions/neck-pain/brachial-neuritis-parsonage-turner-syndrome'
p1612
aS'http://neurosurgery.med.nyu.edu/conditions-we-treat/z-conditions-guide/brachial-plexus-injuries'
p1613
aS'http://www.mayoclinic.org/diseases-conditions/brachial-plexus-injury/basics/causes/con-20028265'
p1614
aS'http://www.upright-health.com/brain-cooling.html'
p1615
aS'http://builtwith.com/'
p1616
aS'http://www.nolo.com/legal-encyclopedia/can-you-be-fired-from-job-while-leave-with-disability.html'
p1617
aS'http://emedicine.medscape.com/article/1958746-overview'
p1618
aS'https://en.m.wikipedia.org/wiki/Cerebral_salt-wasting_syndrome'
p1619
aS'http://www.upright-health.com/cerebrospinal-fluid.html'
p1620
aS'http://www.ncbi.nlm.nih.gov/pmc/articles/PMC2842089/'
p1621
aS'http://www.dartmouth.edu/~dons/part_1/chapter_11.html'
p1622
aS'http://www.dartmouth.edu/~dons/part_2/chapter_18.html'
p1623
aS'http://www.mayfieldchiaricenter.com/chiari.php'
p1624
aS'https://www.quellrelief.com/chronic-pain'
p1625
aS'http://www.nationalmssociety.org/Symptoms-Diagnosis/MS-Symptoms/Cognitive-Changes'
p1626
aS'http://labtestsonline.org/understanding/analytes/csf/tab/test/'
p1627
aS'http://www.dizziness-and-balance.com/disorders/central/csf-leak.html'
p1628
aS'http://mn.db101.org/mn/programs/income_support/std_ltd/program2a.htm'
p1629
aS'http://www.healthyplace.com/adhd/articles/dehydration-also-causes-neurological-and-autoimmune-disorders/'
p1630
aS'http://www.nationalmssociety.org/Symptoms-Diagnosis/Diagnosing-Tools'
p1631
aS'http://www.drugs.com/interactions-check.php?drug_list=168-0,190-1644,2333-1544,1937-2171'
p1632
aS'http://www.eeoc.gov/policy/docs/accommodation.html'
p1633
aS'http://www.aptalispharma.com/epi'
p1634
aS'http://www.ncbi.nlm.nih.gov/books/NBK292/'
p1635
aS'http://en.m.wikipedia.org/wiki/Galactosemia'
p1636
aS'http://www.diabetes.org/living-with-diabetes/complications/hyperosmolar-hyperglycemic.html'
p1637
aS'http://articles.mercola.com/sites/articles/archive/2013/03/07/inflammation-triggers-disease-symptoms.aspx'
p1638
aS'http://www.kbklawyers.com/insurance-bad-faith-record'
p1639
aS'https://www.google.com/search?q=intercostal+neuralgia&oq=Intercostal+Neuralgia&aqs=chrome.0.69i59j69i60j69i65l2j0l2.1573j0j4&sourceid=chrome-mobile&ie=UTF-8'
p1640
aS'http://www.pijn.com/en/patients/cause-of-pain/diagnoses-per-body-region/upper-back-chest/intercostal-neuralgia/'
p1641
aS'http://www.epainassist.com/nerves/intercostal-neuralgia'
p1642
aS'http://topics.hrhero.com/fmla-intermittent-leave/'
p1643
aS'http://www.laserspineinstitute.com/landing/tampa/?source=Google-National-LSIBrand-Tampa-PPC&utm_source=google&utm_medium=ppc&utm_term=laser-spine-institute&cpao=4410&OVMTC=Exact&site=&creative=57373988439&OVKEY=laser%20spine%20institute&url_id=2655602&adpos=1t2&device=t&gclid=CMioo8Kzv8ICFajm7AodCVYApQ&full'
p1644
aS'http://www.drugs.com/sfx/lyrica-side-effects.html'
p1645
aS'http://www.healthline.com/health-news/ms-elevated-liver-enzymes-in-ms-trial-090413'
p1646
aS'http://mshuginfo.blogspot.com/'
p1647
aS'http://www.mult-sclerosis.org/mstreatments.html'
p1648
aS'http://www.msactivesource.com/multiple-sclerosis-symptoms.xml'
p1649
aS'http://www.themcfox.com/multiple-sclerosis/ms-symptoms/mental-problems.htm'
p1650
aS'http://www.nhs.uk/Conditions/fatty-liver-disease/Pages/Introduction.aspx'
p1651
aS'http://www.nutriology.com/WEintake.php'
p1652
aS'http://www.webmd.com/migraines-headaches/occipital-neuralgia-symptoms-causes-treatments'
p1653
aS'http://chiaricare.com/related-disorders/other-related-conditions.aspx'
p1654
aS'http://www.dizziness-and-balance.com/disorders/infections/otitis%20media.htm'
p1655
aS'http://www.nationalmssociety.org/Symptoms-Diagnosis/MS-Symptoms/Pain'
p1656
aS'http://paletton.com/#uid=1000u0kllllaFw0g0qFqFg0w0aF'
p1657
aS'http://nyp.org/health/peripheral-nerve-disorders.html'
p1658
aS'http://neuromuscular.wustl.edu/naltbrain.html'
p1659
aS'http://practicalneurology.com/2014/05/spontaneous-intracranial-hypotension'
p1660
aS'http://www.healthline.com/health/multiple-sclerosis/trigeminal-neuralgia#Overview1'
p1661
aS'http://www.celebrationhealth.com/services/rehabilitation'
p1662
aS'http://kidney.niddk.nih.gov/kudiseases/pubs/tubularacidosis/'
p1663
aS'https://www.healthstatus.com/health_blog/back-shoulder-joint-pain/signs-multiple-sclerosis-ms/'
p1664
aS'http://www.disabilitysecrets.com/social-security-disability-multiple-sclerosis.html'
p1665
aS'http://www.nationalmssociety.org/Symptoms-Diagnosis/MS-Symptoms/Spasticity'
p1666
aS'http://www.laserspineinstitute.com/landing/tampa/conditions/?full'
p1667
aS'http://www.nlm.nih.gov/medlineplus/ency/article/003283.htm'
p1668
aS'http://m.livescience.com/51041-standing-2-hours-workday.html?google_editors_picks=true'
p1669
aS'http://www.webmd.com/migraines-headaches/guide/tension-headaches?page=2'
p1670
aS'https://www.goodreads.com/work/quotes/1297604-the-48-laws-of-power'
p1671
aS'http://www.dol.gov/whd/regs/compliance/1421.htm'
p1672
aS'http://m.hopkinsmedicine.org/neurology_neurosurgery/centers_clinics/headache/conditions/low_CSF_headache.html'
p1673
aS'http://www.webmd.com/pain-management/tricyclic-antidepressants-for-chronic-pain'
p1674
aS'http://en.m.wikipedia.org/wiki/Ulnar_nerve_entrapment'
p1675
aS'http://www.simplywellbeing.com/under-stimulated-low-dopamine'
p1676
aS'http://www.uroinfo.ca/brochures_kidney/ureteropelvicObstruction.html'
p1677
aS'http://www.wellcome.ac.uk/en/pain/microsite/science3.html'
p1678
aS'http://en.m.wikipedia.org/wiki/Wallerian_degeneration'
p1679
aS'https://www.woorank.com/'
p1680
aS'http://njmetropain.com/what-does-intercostal-neuralgia-feel-like/'
p1681
aS'http://www.mayfieldclinic.com/PE-specialists.htm'
p1682
aS'http://www.spinedoctors.md/about.html'
p1683
aS'http://192.168.100.1/'
p1684
aS'http://192.168.1.1/index.asp'
p1685
aS'https://www26.benefits.ml.com/login/login.aspx'
p1686
aS'https://www.discover.com/'
p1687
aS'https://disney.fidelity.com/ftgw/ewcd/learn/pursue/behavioral-health'
p1688
aS'http://www.laketax.com/dl/index.php'
p1689
aS'http://www.flhsmv.gov/offices/lake.html'
p1690
aS'https://www.ibmsecu.org/'
p1691
aS'https://partnersfcu.org/'
p1692
aS'https://bitbucket.org/sboz/osa/wiki/Home'
p1693
aS'https://www.mindtools.com/pages/article/newCS_85.htm'
p1694
aS'https://play.google.com/music/preview/T5sjge74nrstistlfsuhn2tevny?lyrics=1&utm_source=google&utm_medium=search&utm_campaign=lyrics&pcampaignid=kp-songlyrics'
p1695
aS'http://www.siriusxm.com/'
p1696
aS'http://www.trindera.com/'
p1697
aS'http://www.orlandomustang.com/'
p1698
aS'https://www.etsy.com/market/mac_decals'
p1699
aS'https://www.etsy.com/search?q=darth+vader+mac+decal&page=2'
p1700
aS'http://www.catb.org/~esr/faqs/smart-questions.html'
p1701
aS'http://www.amazon.com/s/ref=nb_sb_noss?url=search-alias%3Daps&field-keywords=Back+lite+keyboard'
p1702
aS'http://www.npr.org/2011/01/17/132942244/ikes-warning-of-military-expansion-50-years-later'
p1703
aS'http://www.scgaa.org/new/'
p1704
aS'http://genius.com/Suzanne-collins-the-hanging-tree-annotated'
p1705
aS'http://www.tutorialspoint.com/android/index.htm'
p1706
aS'http://projects.apache.org/projects/manifoldcf.html'
p1707
aS'http://www.gnu.org/software/make/manual/html_node/index.html#toc-An-Introduction-to-Makefiles'
p1708
aS'https://xmlgraphics.apache.org/batik/'
p1709
aS'https://learngraphql.com/basics/lets-learn-graphql'
p1710
aS'http://neo4j.com/docs/stable/cypher-query-lang.html'
p1711
aS'http://d3js.org/'
p1712
aS'http://pothibo.com/2013/09/d3-js-how-to-handle-dynamic-json-data/'
p1713
aS'http://neo4j.com/developer/example-project/'
p1714
aS'https://github.com/GovernmentCommunicationsHeadquarters/Gaffer'
p1715
aS'http://flowingdata.com/2012/08/02/how-to-make-an-interactive-network-visualization/'
p1716
aS'http://neo4j.com/developer/cypher-query-language/'
p1717
aS'http://docs.mongodb.org/manual/tutorial/manage-mongodb-processes/'
p1718
aS'https://github.com/mbostock/d3'
p1719
aS'http://docs.mongodb.org/manual/tutorial/'
p1720
aS'http://nicolewhite.github.io/2014/07/24/visualize-subset-neo4j-alchemy.html'
p1721
aS'https://github.com/robinedwards/neomodel'
p1722
aS'http://zetcode.com/db/sqlitepythontutorial/'
p1723
aS'https://github.com/thobe/neoviz'
p1724
aS'http://maxdemarzi.com/2012/02/13/visualizing-a-network-with-cypher/#more-533'
p1725
aS'https://www.websequencediagrams.com/#'
p1726
aS'http://www.d3noob.org/2012/12/getting-data.html'
p1727
aS'http://bl.ocks.org/ZJONSSON/3918369'
p1728
aS'https://github.com/Darth-Neo'
p1729
aS'http://www.developerhandbook.com/'
p1730
aS'http://docs.seleniumhq.org/download/#thirdPartyDrivers'
p1731
aS'http://www.dzone.com/links/r/jquery_checkbox_and_radio_button_miscellaneous_ti.html'
p1732
aS'http://api.jquery.com/jquery.post/'
p1733
aS'http://bl.ocks.org/mbostock/3884955'
p1734
aS'http://en.wikipedia.org/wiki/Porter_five_forces_analysis'
p1735
aS'http://learnjsdata.com/read_data.html'
p1736
aS'http://www.lavrsen.dk/foswiki/bin/view/Motion/WebHome'
p1737
aS'http://www.lavrsen.dk/foswiki/bin/view/Motion/CCTVChromeExtension'
p1738
aS'http://www.lavrsen.dk/foswiki/bin/view/Motion/'
p1739
aS'https://docs.gimp.org/en/index.html'
p1740
aS"https://www.debian-administration.org/article/347/An_Introduction_to_Video_Surveillance_with_'Motion'"
p1741
aS'https://github.com/piratefsh/image-processing-101'
p1742
aS'http://arnab.org/blog/so-i-suck-24-automating-card-games-using-opencv-and-python'
p1743
aS'https://visual-recognition-demo.mybluemix.net/'
p1744
aS'http://linuxconfig.org/introduction-to-computer-vision-with-opencv-on-linux'
p1745
aS'http://opencv.org/'
p1746
aS'https://opencv-python-tutroals.readthedocs.org/en/latest/'
p1747
aS'https://www.coursera.org/course/images?authMode=login'
p1748
aS'http://highscalability.com/blog/2015/11/9/a-360-degree-view-of-the-entire-netflix-stack.html'
p1749
aS'http://opencv.org/opencv-demonstrator-gui.html'
p1750
aS'http://www.tsdconseil.fr/log/opencv/demo/index-en.html'
p1751
aS'http://www.pyimagesearch.com/2015/06/01/home-surveillance-and-motion-detection-with-the-raspberry-pi-python-and-opencv/'
p1752
aS'http://www.sympy.org/en/index.html'
p1753
aS'http://www.apqc.org/knowledge-management-strategy'
p1754
aS'http://www.splunk.com/'
p1755
aS'http://lifehacker.com/remember-the-7-cs-to-communicate-more-effectively-1579782379'
p1756
aS'http://www.qsm.com/'
p1757
aS'http://www.nltk.org/book/ch06.html'
p1758
aS'https://mahout.apache.org/general/books-tutorials-and-talks.html'
p1759
aS'https://medium.com/@henridf/building-a-streaming-analytics-data-stack-ea0641048661'
p1760
aS'http://byterot.blogspot.com/2015/06/five-crazy-abstractions-my-deep-learning-word2doc-model-just-did-NLP-gensim.html'
p1761
aS'http://scikit-learn.org/stable/tutorial/machine_learning_map/index.html'
p1762
aS'http://www.nltk.org/howto/classify.html'
p1763
aS'http://radimrehurek.com/gensim/tutorial.html'
p1764
aS'http://alexhwoods.com/guide-to-linear-regression/'
p1765
aS'http://tomerfiliba.com/blog/Infix-Operators/'
p1766
aS'http://f.briatte.org/teaching/ida/index.html'
p1767
aS'http://java.dzone.com/articles/learn-r-hello-world-r'
p1768
aS'http://xyclade.github.io/MachineLearning/'
p1769
aS'http://muratbuffalo.blogspot.com/2016/01/paper-review-tensorflow-large-scale.html'
p1770
aS'http://nbviewer.ipython.org/gist/rjweiss/7158866'
p1771
aS'http://opensourceconnections.com/blog/2013/08/25/semantic-search-with-solr-and-python-numpy/'
p1772
aS'http://phdp.github.io/posts/2015-07-13-srl-code.html'
p1773
aS'https://github.com/cataska/programming-collective-intelligence-code/tree/master/chapter10'
p1774
aS'http://www.python-course.eu/text_classification_python.php'
p1775
aS'https://code.google.com/p/pysvg/'
p1776
aS'https://code.google.com/p/svg-edit/'
p1777
aS'https://code.google.com/p/svgplotlib/'
p1778
aS'http://www.wwpi.com/index.php?option=com_content&view=article&id=17513:testing-big-data-three-fundamental-components&catid=328:ctr-exclusives&Itemid=2701746'
p1779
aS'http://ncatlab.org/nlab/show/relation+between+type+theory+and+category+theory#idea'
p1780
aS'http://textblob.readthedocs.org/en/dev/'
p1781
aS'http://devzum.com/2014/12/05/top-10-best-free-ebooks-for-machine-learning/'
p1782
aS'http://stevenloria.com/how-to-build-a-text-classification-system-with-python-and-textblob/'
p1783
aS'http://petewarden.com/2015/04/20/why-gemm-is-at-the-heart-of-deep-learning/'
p1784
aS'http://scikit-learn.org/stable/tutorial/text_analytics/working_with_text_data.html'
p1785
aS'http://colah.github.io/posts/2015-09-Visual-Information/'
p1786
aS'https://dzone.com/articles/software-performance-engineering-body-of-knowledge?utm_medium=feed&amp;utm_source=feedpress.me&amp;utm_campaign=Feed:%20dzone'
p1787
aS'http://test.frame-lang.org/book-v1/'
p1788
aS'http://frame-lang.org/'
p1789
aS'http://martinfowler.com/dsl.html'
p1790
aS'http://cqrs.nu/tutorial/cs/01-design'
p1791
aS'http://www.obitko.com/tutorials/ontologies-semantic-web/formal-representation.html'
p1792
aS'https://cwiki.apache.org/confluence/display/solr/Running+Solr'
p1793
aS'http://localhost:8983/solr/#/gettingstarted_shard1_replica1/query'
p1794
aS'http://localhost:8983/solr/#/'
p1795
aS'http://localhost:8983/solr/#/dkb_shard1_replica1/query'
p1796
aS'http://localhost:8983/solr/#/dkb_shard1_replica1'
p1797
aS'http://lucene.apache.org/solr/3_6_2/doc-files/tutorial.html'
p1798
aS'http://lucene.apache.org/solr/quickstart.html'
p1799
aS'http://lucene.apache.org/solr/quickstart.html'
p1800
aS'http://www.ibm.com/developerworks/library/j-solr-lucene/'
p1801
aS'http://yonik.com/solr-tutorial/'
p1802
aS'https://cwiki.apache.org/confluence/display/solr/Using+Python'
p1803
aS'http://book.py2neo.org/en/latest/cookbook/'
p1804
aS'http://en.citizendium.org/wiki/Deconfliction'
p1805
aS'http://mallet.cs.umass.edu/quick-start.php'
p1806
aS'http://assets.neo4j.org/download/Neo4j_CheatSheet_v3.pdf'
p1807
aS'http://www.clips.ua.ac.be/pattern'
p1808
aS'http://nlp.stanford.edu/software/tmt/tmt-0.4/'
p1809
aS'http://programminghistorian.org/lessons/topic-modeling-and-mallet'
p1810
aS'https://de.dariah.eu/tatom/topic_model_python.html'
p1811
aS'https://dzone.com/articles/topic-modeling-python-and-r'
p1812
aS'https://code.google.com/p/treecloud/'
p1813
aS'https://enterpriseportal.disney.com/wdw_linkresponse.jsp?url=https://collaborationworkspace.disney.com/sites/FBMAdmin/RC/merchandise-operations-supply-standards.html?utm_source=merchmodule&utm_medium=hub&utm_campaign=twdc_hub'
p1814
aS'https://isocpp.org/files/papers/p0225r0.html'
p1815
aS'http://nltk.googlecode.com/svn/trunk/doc/howto/wordnet.html'
p1816
aS'http://graphalchemist.github.io/Alchemy/#/examples'
p1817
aS'http://arborjs.org/introduction'
p1818
aS'http://www.bloomberg.com/visual-data/'
p1819
aS'http://www.infocaptor.com/bubble-my-page?url=www.disney.com&size=800'
p1820
aS'http://bpodgursky.com/2016/02/20/catalog-of-life-taxonomic-tree/'
p1821
aS'http://www.redotheweb.com/CodeFlower/'
p1822
aS'http://www.findtheconversation.com/concept-map'
p1823
aS'https://www.dashingd3js.com/table-of-contents'
p1824
aS'http://www.visualnews.com/category/visualization-2/data-visualization-infographics/'
p1825
aS'http://www.redotheweb.com/DependencyWheel/'
p1826
aS'https://github.com/diffbot/diffbot-python-client'
p1827
aS'http://dimplejs.org/'
p1828
aS'https://www.ethereum.org/'
p1829
aS'http://ramblings.mcpher.com/Home/excelquirks/gassites/d3nodefocus'
p1830
aS'https://networkx.github.io/documentation/latest/examples/javascript/force.html'
p1831
aS'http://bl.ocks.org/mbostock/4062045'
p1832
aS'https://github.com/mbostock/d3/wiki/Gallery'
p1833
aS'http://ghv.artzub.com/#repo=d3&climit=100&user=mbostock'
p1834
aS'https://networkx.github.io/documentation/latest/reference/classes.html'
p1835
aS'http://maurizzzio.github.io/greuler/'
p1836
aS'https://www.dashingd3js.com/d3-training/introductory-data-visualization-and-d3-js-training'
p1837
aS'https://networkx.github.io/documentation/latest/reference/readwrite.json_graph.html'
p1838
aS'http://bost.ocks.org/mike/miserables/'
p1839
aS'http://www.makeuseof.com/'
p1840
aS'http://www.codeproject.com/Articles/693841/Making-Dashboards-with-Dc-js-Part-Using-Crossfil'
p1841
aS'http://metanews.com/'
p1842
aS'http://neoformix.com/spot/#/Twitter+Visualization'
p1843
aS'http://www.newser.com/'
p1844
aS'http://www.newsmap.jp/#/b,m,n,t,w/ca,uk,us/view/'
p1845
aS'http://newsvis.org/'
p1846
aS'http://opensource.com/'
p1847
aS'http://bl.ocks.org/mbostock/4063550'
p1848
aS'https://github.com/samizdatco/arbor'
p1849
aS'http://sigmajs.org/'
p1850
aS'https://github.com/mbostock/d3/wiki/Tutorials'
p1851
aS'http://tweetping.net/#'
p1852
aS'http://visualizing.org/'
p1853
aS'http://www.w3schools.com/'
p1854
aS'http://wiki.tcl.tk/299'
p1855
aS'http://www.whodotheyserve.com/'
p1856
aS'http://www.jasondavies.com/wordcloud/#%2F%2Fwww.cnn.com'
p1857
aS'http://aprt.us/'
p1858
aS'http://www.edwardtufte.com/tufte/index'
p1859
aS'http://architects.dzone.com/articles/beginners-guide-enhancing'
p1860
aS'https://mahout.apache.org/users/basics/creating-vectors-from-text.html'
p1861
aS'http://projects.apache.org/indexes/language.html#Python'
p1862
aS'http://tika.apache.org/'
p1863
aS'http://project.carrot2.org/'
p1864
aS'http://www.theenterprisearchitect.eu/archive/2008/04/15/combining-general-purpose-languages-and-domain-specific-languages-for-model-driven-engineering'
p1865
aS'http://www.opensemanticsearch.org/solr-connector-files'
p1866
aS'https://www.cs.princeton.edu/~blei/topicmodeling.html'
p1867
aS'https://code.google.com/p/kea-algorithm/downloads/list'
p1868
aS'http://joelabrahamsson.com/elasticsearch-101/'
p1869
aS'http://www.faviki.com/pages/welcome/'
p1870
aS'http://www.nltk.org/data.html'
p1871
aS'https://code.google.com/p/kea-algorithm/'
p1872
aS'http://jsbeautifier.org/'
p1873
aS'http://www.opensemanticsearch.org/'
p1874
aS'http://digitalhumanitiesnow.org/2014/04/resources-tutorials-on-text-analysis-and-topic-modeling-in-python/'
p1875
aS'http://www.elasticsearchtutorial.com/'
p1876
aS'http://worddiagram.com/'
p1877
aS'http://www.nltk.org/howto/wordnet.html'
p1878
aS'http://opendesktop.org/content/show.php?content=55242'
p1879
aS'https://books.google.com/ngrams/graph?content=retail+sales+revenue&year_start=1800&year_end=2000&corpus=15&smoothing=3&share=&direct_url=t1%3B%2Cretail%20sales%20revenue%3B%2Cc0'
p1880
aS'http://www.randomhacks.net/probability-monads/'
p1881
aS'http://www.cplusplus.com/reference/cstdio/'
p1882
aS'http://qmlbook.github.io/en/ch01/index.html'
p1883
aS'http://www.realcombiz.com/2014/11/20-code-snippet-playgrounds.html'
p1884
aS'http://theneodesign.com/best-dribbble-freebies-november-2014/'
p1885
aS'http://pdos.csail.mit.edu/6.828/2014/labs/lab1/'
p1886
aS'http://queue.acm.org/detail.cfm?id=2693160'
p1887
aS'http://www.informit.com/articles/printerfriendly/1768317?_ga=1.175054754.1418968640.1417677887'
p1888
aS'https://danielmiessler.com/study/vim/?fb_ref=118ef0e03ab54c0d8197214328648a68-Hackernews#why'
p1889
aS'http://www.versionone.com/'
p1890
aS'http://www.network-theory.co.uk/docs/gccintro/gccintro_54.html'
p1891
aS'https://dzone.com/articles/apache-solr-get-started-get'
p1892
aS'http://dbp-consulting.com/tutorials/programming/BasicPosixThreads.html'
p1893
aS'http://basic256.org/index_en'
p1894
aS'http://wiki.osdev.org/Beginner_Mistakes'
p1895
aS'http://www.kaizou.org/2015/01/linux-libraries/'
p1896
aS'http://www.nongnu.org/avr-libc/user-manual/install_tools.html'
p1897
aS'https://developer.apple.com/library/ios/documentation/CoreFoundation/Conceptual/CFBundles/AboutBundles/AboutBundles.html'
p1898
aS'http://www.bogotobogo.com/cplusplus/libraries.php'
p1899
aS'https://sympa.inria.fr/sympa/arc/caml-list/2015-09/msg00079.html'
p1900
aS'http://techtraits.com/microservice.html'
p1901
aS'http://www.usingcsp.com/'
p1902
aS'http://concurrencykit.org/'
p1903
aS'http://cseweb.ucsd.edu/~mihir/cse207/classnotes.html'
p1904
aS'http://vmturbo.com/about-virtualization/virtualization/devs-are-from-venus-ops-are-from-mars-containers-amazon-web-services-part-i/'
p1905
aS'http://vmturbo.com/about-virtualization/devs-venus-ops-mars-part-vi-canonical-data-model/'
p1906
aS'https://github.com/DiUS/pact-jvm'
p1907
aS'http://www.vogella.com/tutorials/EclipseRCP/article.html'
p1908
aS'http://marketplace.eclipse.org/content/eclipse-color-theme'
p1909
aS'http://akaptur.com/blog/2015/10/10/effective-learning-strategies-for-programmers/'
p1910
aS'https://www.elastic.co/guide/en/elasticsearch/guide/current/index.html'
p1911
aS'http://www.homeandlearn.org/write_to_a_text_file.html'
p1912
aS'http://wiki.osdev.org/Main_Page'
p1913
aS'http://firstclassfunc.com/facebook-fabric-networking'
p1914
aS'http://www.wisdom.weizmann.ac.il/~naor/COURSE/foundations_of_crypto.html'
p1915
aS'http://www.softdevtube.com/2014/11/06/functional-programming-what-why-when/'
p1916
aS'https://launchpad.net/gcc-arm-embedded'
p1917
aS'https://gcc.gnu.org/'
p1918
aS'https://developers.google.com/'
p1919
aS'https://code.google.com/hosting/search?q=label:CodeAnalysis'
p1920
aS'http://google-styleguide.googlecode.com/svn/trunk/angularjs-google-style.html'
p1921
aS'http://www.cis.upenn.edu/~bcpierce/courses/670Fall04/GreatWorksInPL.shtml'
p1922
aS'http://stackoverflow.com/questions/4430998/mathematica-what-is-symbolic-programming'
p1923
aS'http://en.m.wikipedia.org/wiki/Haskell_(programming_language)'
p1924
aS'https://github.com/fizx/parsley/wiki'
p1925
aS'http://ceramics.wonderhowto.com/how-to/advance-cermaics-by-practicing-basics-381315/'
p1926
aS'http://lifehacker.com/how-to-run-a-portable-version-of-windows-from-a-usb-dri-1565509124'
p1927
aS'http://hustoknow.blogspot.com/2011/09/compiling-lxml2.html'
p1928
aS'https://code.google.com/p/iep/'
p1929
aS'http://www.delorie.com/djgpp/doc/brennan/brennan_att_inline_djgpp.html'
p1930
aS'http://martinfowler.com/intro.html'
p1931
aS'http://inventwithpython.com/bookshelf/'
p1932
aS'http://www.drdobbs.com/tools/its-time-to-get-good-at-functional-progr/212201710'
p1933
aS'https://github.com/josephmisiti/awesome-machine-learning#python-nlp'
p1934
aS'https://github.com/k-bx/owlcloud'
p1935
aS'https://github.com/kachayev/fn.py'
p1936
aS'https://www.offensive-security.com/kali-linux/kali-with-raspberry-pi-tft-support/'
p1937
aS'http://khanlou.com/2016/05/protocol-oriented-programming/'
p1938
aS'https://code.google.com/p/killerbee/'
p1939
aS'http://klisp.org/'
p1940
aS'http://softwareengineeringdaily.com/2015/11/10/knowledge-based-programming-with-stephen-wolfram/'
p1941
aS'https://kyleisom.net/projects/schannel/'
p1942
aS'http://www.yolinux.com/TUTORIALS/GDB-Commands.html'
p1943
aS'http://dbp-consulting.com/tutorials/debugging/linuxProgramStartup.html'
p1944
aS'http://www.tutorialspoint.com/lua/'
p1945
aS'http://www.lua.org/cgi-bin/demo?hello'
p1946
aS'http://www.lua.org/docs.html'
p1947
aS'https://github.com/martinblech/xmltodict'
p1948
aS'http://www.chiark.greenend.org.uk/~sgtatham/mp/'
p1949
aS'https://en.m.wikipedia.org/wiki/Microservices'
p1950
aS'https://github.com/mikedewar/d3py'
p1951
aS'https://github.com/mothran/bunny'
p1952
aS'https://medium.com/backchannel/my-computer-language-is-better-than-yours-58d9c9523644'
p1953
aS'http://lexborisov.github.io/myhtml/'
p1954
aS'https://dev.mysql.com/doc/connector-cpp/en/connector-cpp-examples-complete-example-1.html'
p1955
aS'http://www.tutorialspoint.com/cplusplus/cpp_namespaces.htm'
p1956
aS'https://www.npmjs.com/package/neo4j'
p1957
aS'https://github.com/nryoung/algorithms'
p1958
aS'https://github.com/rust-lang/rust/wiki/Operating-system-development'
p1959
aS'http://pgbovine.net/cpython-internals.htm'
p1960
aS'https://dzone.com/articles/portable-api-driven-or-at-least-json-driven-intera?utm_medium=feed&amp;utm_source=feedpress.me&amp;utm_campaign=Feed:%20dzone'
p1961
aS'http://www.cse.unsw.edu.au/~cs9242/14/project/index.shtml#project-a-simple-operating-system'
p1962
aS'http://bentnib.org/posts/2015-04-17-propositions-as-filenames-essence-of-make.html'
p1963
aS'https://code.google.com/p/pybootchartgui/'
p1964
aS'https://pypi.python.org/pypi'
p1965
aS'http://pytest.org/latest/builtin.html#builtin-fixtures-function-arguments'
p1966
aS'http://lwn.net/SubscriberLink/641244/5d1d6d20aeb0a647/'
p1967
aS'http://www.qt.io/'
p1968
aS'http://www.programcreek.com/r-tutorial-for-beginners/'
p1969
aS'https://www.rabbitmq.com/download.html'
p1970
aS'http://smallcultfollowing.com/babysteps/blog/2015/12/18/rayon-data-parallelism-in-rust/'
p1971
aS'http://highscalability.com/blog/2013/8/26/reddit-lessons-learned-from-mistakes-made-scaling-to-1-billi.html'
p1972
aS'http://resrc.io/list/10/list-of-free-programming-books/'
p1973
aS'http://www.engineersedge.com/reverse_engineering/reverse_engineering_in_the_context_of_desktop_and_mobile_applications_security_13212.htm'
p1974
aS'http://www.russbishop.net/monoids-monads-and-functors'
p1975
aS'http://saw.galois.com/index.html'
p1976
aS'http://www.secdev.org/projects/scapy/'
p1977
aS'https://github.com/scrapinghub/portia'
p1978
aS'http://www.adambourg.com/2015/11/10/scrum-is-the-new-waterfall/'
p1979
aS'http://chickenwing.software/scratches/programming/annoying-apis'
p1980
aS'http://semat.org/'
p1981
aS'http://jxf.me/entries/cheryls-birthday/'
p1982
aS'http://www.sorting-algorithms.com/'
p1983
aS'http://www.sublimetext.com/2'
p1984
aS'http://textract.readthedocs.org/en/latest/'
p1985
aS'http://lambda-the-ultimate.org/node/2873'
p1986
aS'http://www.algorist.com/'
p1987
aS'http://www.artima.com/index.jsp'
p1988
aS'http://blog.backand.com/list-of-angularjs-resources/'
p1989
aS'http://faingezicht.com/projects/2016/04/26/python-black-magic/'
p1990
aS'https://github.com/thomasahle/sunfish'
p1991
aS'https://github.com/thoughtworks/pacto'
p1992
aS'http://blog.backand.com/time-saving-angularjs-tips/'
p1993
aS'http://pythonhackers.com/open-source/'
p1994
aS'http://webpy.org/docs/0.3/tutorial'
p1995
aS'http://www.tutorialspoint.com/makefile/'
p1996
aS'http://www.ricomputermuseum.org/Home/video-game-collection'
p1997
aS'https://railsadventures.wordpress.com/'
p1998
aS'http://docs.writethedocs.org/'
p1999
aS'http://www.quora.com/What-are-the-best-blogs-to-follow-for-front-end-development'
p2000
aS'http://kunststube.net/encoding/'
p2001
aS'http://dev.stephendiehl.com/hask/'
p2002
aS'http://joearms.github.io/2014/02/07/why-programming-is-difficult.html'
p2003
aS'https://code.google.com/p/xsd-tools/'
p2004
aS'https://triplebyte.com/ycombinator-startups#q=&page=0&refinements=%5B%5D&ts=1441671954'
p2005
aS'https://www3.ntu.edu.sg/home/ehchua/programming/index.html'
p2006
aS'https://github.com/yhat/ggplot'
p2007
aS'https://docs.djangoproject.com/en/1.7/'
p2008
aS'https://docs.djangoproject.com/en/1.7/contents/'
p2009
aS'https://docs.djangoproject.com/en/1.7/contents/'
p2010
aS'https://docs.djangoproject.com/en/1.8/intro/tutorial01/'
p2011
aS'https://docs.djangoproject.com/en/1.7/py-modindex/'
p2012
aS'https://docs.djangoproject.com/en/1.7/topics/pagination/'
p2013
aS'https://docs.djangoproject.com/en/1.7/howto/deployment/wsgi/modwsgi/'
p2014
aS'https://code.djangoproject.com/wiki/DjangoResources'
p2015
aS'https://neo4django.readthedocs.org/en/latest/getting-started.html'
p2016
aS'https://www.caktusgroup.com/blog/2009/09/28/custom-joins-with-djangos-queryjoin/'
p2017
aS'http://www.pythoncentral.io/writing-your-first-python-django-application/'
p2018
aS'https://www.djangopackages.com/'
p2019
aS'http://www.django-rest-framework.org/'
p2020
aS'https://code.google.com/p/django-rest-interface/'
p2021
aS'https://github.com/django-wiki/django-wiki'
p2022
aS'http://django-notes.blogspot.com/2012/07/vizualization.html'
p2023
aS'http://djangotricks.blogspot.com/2009/10/weather-app-tutorial-part-1-of-5.html'
p2024
aS'http://www.alexanderinteractive.com/blog/2012/08/getting-started-with-solr-and-django/'
p2025
aS'http://stackoverflow.com/questions/5907575/how-do-i-use-pagination-with-django-class-based-generic-listviews'
p2026
aS'http://www.jeffknupp.com/blog/2012/10/24/starting-a-django-14-project-the-right-way/'
p2027
aS'http://www.effectivedjango.com/index.html'
p2028
aS'http://www.effectivedjango.com/tutorial/'
p2029
aS'https://www.djangosites.org/'
p2030
aS'http://effectivedjango.com/tutorial/related.html'
p2031
aS'http://sphinx-doc.org/rest.html#rst-primer'
p2032
aS'http://peterhudec.github.io/authomatic/examples/django-simple.html'
p2033
aS'http://pythonhackers.com/open-source/tomchristie/django-rest-framework'
p2034
aS'http://bokeh.pydata.org/en/latest/'
p2035
aS'http://www.buildout.org/en/latest/'
p2036
aS'http://csvkit.readthedocs.org/en/latest/'
p2037
aS'http://doc.scrapy.org/en/latest/intro/examples.html'
p2038
aS'https://neo4django.readthedocs.org/en/latest/getting-started.html'
p2039
aS'https://pip.pypa.io/en/latest/installing.html'
p2040
aS'http://sphinx-doc.org/'
p2041
aS'https://packaging.python.org/en/latest/'
p2042
aS'http://textract.readthedocs.org/en/latest/index.html'
p2043
aS'http://textract.readthedocs.org/en/latest/'
p2044
aS'https://neo4j-rest-client.readthedocs.org/en/latest/traversals.html'
p2045
aS'http://unicodebook.readthedocs.org/en/latest/nightmare.html'
p2046
aS'http://python-ooxml.readthedocs.org/en/latest/usage.html'
p2047
aS'http://doc.scrapy.org/en/latest/topics/firefox.html#topics-firefox'
p2048
aS'https://theano.readthedocs.org/en/latest/'
p2049
aS'http://www.fabfile.org/'
p2050
aS'http://intermediate-and-advanced-software-carpentry.readthedocs.org/en/latest/c++-wrapping.html'
p2051
aS'http://treyhunner.com/2015/12/python-list-comprehensions-now-in-color/'
p2052
aS'http://www.regular-expressions.info/'
p2053
aS'http://www.diveintopython.net/xml_processing/unicode.html'
p2054
aS'http://people.duke.edu/~ccc14/sta-663/CUDAPython.html'
p2055
aS'http://tutsplus.com/'
p2056
aS'http://blog.miguelgrinberg.com/post/designing-a-restful-api-with-python-and-flask'
p2057
aS'http://mrjoes.github.io/2015/06/17/flask-admin-120.html'
p2058
aS'https://docs.python.org/2/using/cmdline.html#environment-variables'
p2059
aS'https://github.com/adafruit'
p2060
aS'https://github.com/adafruit/adafruit-pi-cam'
p2061
aS'https://github.com/adafruit/Adafruit-PiTFT-Helper'
p2062
aS'https://github.com/airbnb/javascript#types'
p2063
aS'https://github.com/amueller/word_cloud'
p2064
aS'https://github.com/notro/fbtft/wiki/Boot-console'
p2065
aS'https://github.com/boto/boto3'
p2066
aS'https://github.com/ccrisan/motionpie'
p2067
aS'https://github.com/chrismattmann/tika-python'
p2068
aS'https://github.com/climberhunt/PiPhone'
p2069
aS'https://github.com/clips/pattern'
p2070
aS'https://gist.github.com/bearfrieze/a746c6f12d8bada03589'
p2071
aS'https://github.com/acaudwell/Gource/wiki/Controls'
p2072
aS'https://github.com/CTurt/PS4-SDK'
p2073
aS'https://github.com/cyrus-and/gdb-dashboard'
p2074
aS'https://github.com/DanMcInerney/wifijammer'
p2075
aS'https://github.com/deanmalmgren/textract'
p2076
aS'https://github.com/devstructure/blueprint'
p2077
aS'https://github.com/DexterInd/ArduBerry'
p2078
aS'https://github.com/evolvingweb/ajax-solr'
p2079
aS'https://github.com/faif/python-patterns'
p2080
aS'https://github.com/fchollet/keras/'
p2081
aS'https://github.com/fffaraz/awesome-cpp'
p2082
aS'https://github.com/raspberrypi/firmware/tree/master/boot'
p2083
aS'https://github.com/gak/pycallgraph'
p2084
aS'https://github.com/gak/pycallgraph'
p2085
aS'https://git-scm.com/book/en/v2/Git-on-the-Server-Setting-Up-the-Server'
p2086
aS'https://github.com/piskvorky/topic_modeling_tutorial'
p2087
aS'https://github.com/gleitz/howdoi'
p2088
aS'https://github.com/notro/fbtft/wiki'
p2089
aS'https://github.com/pyinstaller/pyinstaller/wiki'
p2090
aS'https://github.com/johnlane/rpi-utils'
p2091
aS'https://github.com/jsexauer/networkx_viewer'
p2092
aS'https://github.com/kennethreitz/requests'
p2093
aS'https://github.com/khoulihan/micropython-tmp102'
p2094
aS'https://github.com/kragniz/json-sempai/tree/master'
p2095
aS'https://github.com/notro/fbtft/wiki/LCD-Modules'
p2096
aS'https://github.com/mit-nlp/MITIE'
p2097
aS'https://github.com/mitsuhiko/werkzeug'
p2098
aS'https://github.com/mwilliams03/Raspberry-Gyro-Acc'
p2099
aS'https://github.com/openhomeautomation/rpi-web-control'
p2100
aS'https://github.com/pageauc/pi-timolo'
p2101
aS'https://github.com/pyflakes/pyflakes/'
p2102
aS'https://gist.github.com/aphlysia/7129772'
p2103
aS'https://github.com/quick2wire/quick2wire-python-api'
p2104
aS'https://github.com/aneesha/RAKE/blob/master/rake.py'
p2105
aS'https://github.com/raspberrypi'
p2106
aS'https://github.com/adafruit/Adafruit-Pi-Finder/releases/tag/v2.0.1-beta'
p2107
aS'https://github.com/scrapy/dirbot'
p2108
aS'https://github.com/sehmaschine/django-filebrowser'
p2109
aS'https://github.com/szechyjs/dsd'
p2110
aS'https://github.com/ve3wwg/raspberry_pi'
p2111
aS'https://github.com/versionone/VersionOne.SDK.Python/tree/master/v1pysdk'
p2112
aS'https://github.com/vinta/awesome-python#search'
p2113
aS'https://github.com/WiringPi/WiringPi-Python'
p2114
aS'https://github.com/wrobstory/vincent'
p2115
aS'https://github.com/zoofIO/flexx'
p2116
aS'https://github.com/Yelp/mrjob'
p2117
aS'https://github.com/pypa/manylinux'
p2118
aS'https://www.andyjeffries.co.uk/25-tips-for-intermediate-git-users/'
p2119
aS'http://mongotron.io/'
p2120
aS'https://github.com/mbostock/d3'
p2121
aS'https://github.com/thobe/neoviz'
p2122
aS'https://github.com/robinedwards/neomodel'
p2123
aS'http://neo4j.com/docs/stable/cypher-query-lang.html'
p2124
aS'http://neo4j.com/developer/example-project/'
p2125
aS'http://d3js.org/'
p2126
aS'http://pothibo.com/2013/09/d3-js-how-to-handle-dynamic-json-data/'
p2127
aS'http://nicolewhite.github.io/2014/07/24/visualize-subset-neo4j-alchemy.html'
p2128
aS'http://maxdemarzi.com/2012/02/13/visualizing-a-network-with-cypher/#more-533'
p2129
aS'http://flowingdata.com/2012/08/02/how-to-make-an-interactive-network-visualization/'
p2130
aS'http://neo4j.com/developer/cypher-query-language/'
p2131
aS'http://www.graphviz.org/content/resources'
p2132
aS'http://couchdbkit.org/docs/django-extension.html'
p2133
aS'http://www.jython.org/downloads.html'
p2134
aS'http://www.jython.org/downloads.html'
p2135
aS'http://www.jython.org/downloads.html'
p2136
aS'http://www.jython.org/downloads.html'
p2137
aS'http://kivy.org/planet/2015/04/python-on%C2%A0android/'
p2138
aS'http://kivy.org/#home'
p2139
aS'https://github.com/kivy/kivy'
p2140
aS'http://www.nltk.org/book/ch06.html'
p2141
aS'http://scikit-learn.org/stable/tutorial/machine_learning_map/index.html'
p2142
aS'http://scikit-learn.org/stable/auto_examples/document_classification_20newsgroups.html'
p2143
aS'http://www.nltk.org/howto/classify.html'
p2144
aS'http://radimrehurek.com/gensim/tutorial.html'
p2145
aS'http://f.briatte.org/teaching/ida/index.html'
p2146
aS'http://www.w3schools.com/jquery/default.asp'
p2147
aS'http://java.dzone.com/articles/learn-r-hello-world-r'
p2148
aS'http://opensourceconnections.com/blog/2013/08/25/semantic-search-with-solr-and-python-numpy/'
p2149
aS'https://github.com/cataska/programming-collective-intelligence-code/tree/master/chapter10'
p2150
aS'https://code.google.com/p/pysvg/'
p2151
aS'https://code.google.com/p/svg-edit/'
p2152
aS'https://code.google.com/p/svgplotlib/'
p2153
aS'http://www.wwpi.com/index.php?option=com_content&view=article&id=17513:testing-big-data-three-fundamental-components&catid=328:ctr-exclusives&Itemid=2701746'
p2154
aS'http://devzum.com/2014/12/05/top-10-best-free-ebooks-for-machine-learning/'
p2155
aS'http://stevenloria.com/how-to-build-a-text-classification-system-with-python-and-textblob/'
p2156
aS'http://scikit-learn.org/stable/tutorial/text_analytics/working_with_text_data.html'
p2157
aS'https://pypi.python.org/pypi/openxmllib/1.0.7'
p2158
aS'http://www.jython.org/jythonbook/en/1.0/appendixA.html'
p2159
aS'http://fastml.com/pybrain-a-simple-neural-networks-library-in-python/'
p2160
aS'http://www.ibm.com/developerworks/library/os-pythonnltk/'
p2161
aS'http://www.pythoncentral.io/category/python-tutorials/'
p2162
aS'http://pyclips.sourceforge.net/web/?q=node/19'
p2163
aS'https://github.com/oscartprom/python-pptx/commit/0df23460f4d01e8a5449b7c3bbf599f24ddc824a'
p2164
aS'http://scikit-learn.org/stable/tutorial/basic/tutorial.html'
p2165
aS'https://code.google.com/p/tesseract-ocr/wiki/APIExample'
p2166
aS'http://fastml.com/blog/categories/pylearn2/'
p2167
aS'http://pymotw.com/2/ConfigParser/index.html'
p2168
aS'http://www.web2py.com/demo_app1/default/index'
p2169
aS'http://effectivedjango.com/tutorial/related.html'
p2170
aS'https://github.disney.com/ForceWorks/hex/'
p2171
aS'http://www.gefira.pl/blog/2010/12/17/howto-installing-spring-python-and-its-dependencies/'
p2172
aS'http://git-scm.com/book/en/Git-Basics-Recording-Changes-to-the-Repository'
p2173
aS'http://rogerdudler.github.io/git-guide/'
p2174
aS'http://brew.sh/'
p2175
aS'http://williamjohnbert.com/2012/03/how-to-install-accelerated-blas-into-a-python-virtualenv/'
p2176
aS'https://ssp-svn1.wdw.disney.com/svn-infra/env-configs/properties/trunk/environment/load1/environment.properties'
p2177
aS'https://ssp-svn1.wdw.disney.com/svn-infra/env-configs/properties/trunk/environment/load1/environment.properties'
p2178
aS'https://www.libsdl.org/projects/'
p2179
aS'http://www.nltk.org/data.html'
p2180
aS'http://www.w3schools.com/jquery/ajax_getjson.asp'
p2181
aS'http://icl.cs.utk.edu/lapack-for-windows/lapack/#build'
p2182
aS'http://pyke.sourceforge.net/logic_programming/pattern_matching/index.html'
p2183
aS'http://fastml.com/pybrain-a-simple-neural-networks-library-in-python/'
p2184
aS'http://pyclips.sourceforge.net/web/'
p2185
aS'https://code.google.com/p/pytesseracttrainer/'
p2186
aS'http://django-notes.blogspot.com/2012/07/vizualization.html'
p2187
aS'https://www.google.com/search?q=python+inference+engine&sourceid=ie7&rls=com.microsoft:en-us:IE-SearchBox&ie=&oe='
p2188
aS'http://pymotw.com/2/index.html'
p2189
aS'http://www.pythoncentral.io/python-unicode-encode-decode-strings-python-2x/'
p2190
aS'http://pythonthusiast.pythonblogs.com/230_pythonthusiast/archive/1347_starting_to_use_kivy__developing_letter_of_heroes_an_android_alphabet_teaching_aid_for_kids_part_2_of_2.html'
p2191
aS'http://effectivedjango.com/tutorial/related.html'
p2192
aS'http://www.secdev.org/projects/scapy/portability.html'
p2193
aS'http://www.w3schools.com/svg/'
p2194
aS'http://textract.readthedocs.org/en/latest/'
p2195
aS'https://twistedmatrix.com/trac/'
p2196
aS'http://stackoverflow.com/questions/147741/character-reading-from-file-in-python'
p2197
aS'http://www.secdev.org/projects/scapy/build_your_own_tools.html'
p2198
aS'http://www.nltk.org/howto/wordnet.html'
p2199
aS'http://www.pythoncentral.io/writing-your-first-python-django-application/'
p2200
aS'http://www.w3schools.com/xpath/'
p2201
aS'http://xquartz.macosforge.org/landing/'
p2202
aS'http://doda.co/7-python-libraries-you-should-know-about/'
p2203
aS'http://pyclips.sourceforge.net/web/?q=node/19'
p2204
aS'http://aws.amazon.com/sdk-for-python/'
p2205
aS'http://code.tutsplus.com/tutorials/build-an-angularjs-app-powered-by-python-eve-part-2--cms-23383'
p2206
aS'http://www.buildout.org/en/latest/'
p2207
aS'https://pypi.python.org/pypi/bumpversion/0.5.1'
p2208
aS'http://fastml.com/blog/categories/pylearn2/'
p2209
aS'http://pymotw.com/2/ConfigParser/index.html'
p2210
aS'https://mborgerson.com/creating-an-executable-from-a-python-script'
p2211
aS'http://www.dzone.com/links/r/15_top_websites_to_learn_angularjs.html'
p2212
aS'https://gcc.gnu.org/onlinedocs/gcc/Environment-Variables.html'
p2213
aS'http://worrydream.com/ExplorableExplanations/'
p2214
aS'http://radimrehurek.com/gensim/tut3.html'
p2215
aS'https://code.google.com/p/gui2py/'
p2216
aS'http://gunicorn.org/'
p2217
aS'https://clearlinux.org/'
p2218
aS'http://usersnap.com/blog/get-started-web-development-8-elementary-tips/'
p2219
aS'http://hpccsystems.com/'
p2220
aS'https://github.com/ingydotnet/git-hub'
p2221
aS'https://docs.djangoproject.com/en/dev/internals/contributing/writing-code/javascript/'
p2222
aS'http://refcardz.dzone.com/refcardz/jenkins-paas'
p2223
aS'http://kubernetes.io/'
p2224
aS'http://twitter.github.io/labella.js/'
p2225
aS'http://icl.cs.utk.edu/lapack-for-windows/lapack/#build'
p2226
aS'http://www.codecademy.com/'
p2227
aS'https://www.codeschool.com/'
p2228
aS'http://www.micropython.org/'
p2229
aS'https://www.n2acards.com/downloadable/customer/products/'
p2230
aS'https://nodejs.org/'
p2231
aS'http://nullege.com/codes/show/src@b@r@BrickPi_Python-HEAD@Sensor_Examples@MINDSENSORS-AbsoluteIMU-ACG_Test.py'
p2232
aS'http://nxweb.org/'
p2233
aS'http://www.lynda.com/default.aspx'
p2234
aS'http://www.parallelpython.com/'
p2235
aS'http://www.clips.ua.ac.be/pattern'
p2236
aS'http://pyke.sourceforge.net/logic_programming/pattern_matching/index.html'
p2237
aS'http://www.pythonforbeginners.com/cheatsheet/python-mechanize-cheat-sheet/'
p2238
aS'http://mg.pov.lt/objgraph/'
p2239
aS'http://pythonwheels.com/'
p2240
aS'https://code.google.com/p/python-tesseract/'
p2241
aS'https://code.google.com/p/jrfonseca/wiki/PythonMonkey'
p2242
aS'https://code.google.com/p/salesforce-python-toolkit/'
p2243
aS'http://hackoftheday.securitytube.net/2013/03/wi-fi-sniffer-in-10-lines-of-python.html'
p2244
aS'https://snipt.net/'
p2245
aS'http://www.multyshades.com/2015/07/angularjs-tutorials/'
p2246
aS'http://www.tuio.org/'
p2247
aS'http://www.wxpython.org/'
p2248
aS'http://www.pygame.org/hifi.html'
p2249
aS'http://www.pygame.org/docs/ref/draw.html'
p2250
aS'http://www.pygame.org/wiki/GettingStarted'
p2251
aS'http://www.pythoncentral.io/category/python-tutorials/'
p2252
aS'https://wiki.python.org/jython/UserGuide'
p2253
aS'https://docs.python.org/2/howto/unicode.html'
p2254
aS'https://www.python.org/'
p2255
aS'https://www.python.org/download/releases/2.7.8/'
p2256
aS'https://pypi.python.org/pypi/solrpy?'
p2257
aS'https://pypi.python.org/pypi/simserver'
p2258
aS'https://pypi.python.org/pypi/Pyro4'
p2259
aS'https://pypi.python.org/pypi/lda'
p2260
aS'https://wiki.python.org/moin/ConfigParserExamples'
p2261
aS'https://docs.python.org/3/library/ensurepip.html'
p2262
aS'https://pypi.python.org/pypi/bumpversion/0.5.1'
p2263
aS'https://pypi.python.org/pypi/openxmllib/1.0.7'
p2264
aS'https://pypi.python.org/pypi/pyexchange/0.4.1'
p2265
aS'https://pypi.python.org/pypi/pygraphviz'
p2266
aS'https://pypi.python.org/pypi'
p2267
aS'https://www.python.org/download/releases/2.7.8/'
p2268
aS'https://pypi.python.org/pypi/sh'
p2269
aS'https://pypi.python.org/pypi/solrpy?'
p2270
aS'https://docs.python.org/2/howto/unicode.html'
p2271
aS'https://wiki.python.org/jython/UserGuide'
p2272
aS'https://wiki.python.org/moin/UsefulModules'
p2273
aS'https://wiki.python.org/moin/PythonSpeed/PerformanceTips'
p2274
aS'https://wiki.python.org/moin/ConfigParserExamples'
p2275
aS'https://wiki.python.org/moin/ParallelProcessing'
p2276
aS'http://pythonhosted.org/PyInstaller/'
p2277
aS'https://pypi.python.org/pypi/networkx_viewer/0.2.0'
p2278
aS'https://pypi.python.org/pypi/pygraphviz'
p2279
aS'https://pypi.python.org/pypi'
p2280
aS'https://pypi.python.org/pypi/pyexchange/0.4.1'
p2281
aS'https://pypi.python.org/pypi/pytest-cov'
p2282
aS'https://docs.python.org/2/using/cmdline.html#environment-variables'
p2283
aS'https://docs.python.org/2/library/sqlite3.html'
p2284
aS'https://docs.python.org/2/library/xml.etree.elementtree.html'
p2285
aS'https://docs.python.org/2/library/ensurepip.html'
p2286
aS'https://pypi.python.org/pypi/IOSSHy/1.6'
p2287
aS'https://pypi.python.org/pypi/sh'
p2288
aS'https://pypi.python.org/pypi/simple-salesforce'
p2289
aS'https://pypi.python.org/pypi/solrpy?'
p2290
aS'https://pypi.python.org/pypi/textract'
p2291
aS'https://docs.python.org/2/library/configparser.html'
p2292
aS'https://warehouse.python.org/'
p2293
aS'http://pyclips.sourceforge.net/web/'
p2294
aS'http://www.randalolson.com/2014/06/28/how-to-make-beautiful-data-visualizations-in-python-with-matplotlib/'
p2295
aS'http://newcoder.io/dataviz/intro/'
p2296
aS'https://news.ycombinator.com/item?id=9896369'
p2297
aS'https://pypi.python.org/pypi/IpCamPy/0.3.0#a-raspberry-pi-surveillance-system'
p2298
aS'http://pythonhosted.org/Pyro4/tutorials.html'
p2299
aS'http://www.learnpython.org/en/Decorators'
p2300
aS'http://docs.python-guide.org/en/latest/writing/style/'
p2301
aS'https://flask-wtf.readthedocs.io/en/latest/'
p2302
aS'http://www.sphinx-doc.org/en/stable/tutorial.html'
p2303
aS'http://python-pptx.readthedocs.org/en/latest/dev/analysis/features/shp-connector.html'
p2304
aS'http://toil.readthedocs.io/en/latest/'
p2305
aS'https://vincent.readthedocs.org/en/latest/'
p2306
aS'http://www.tutorialspoint.com/python/python_dictionary.htm'
p2307
aS'http://www.tutorialspoint.com/python/python_classes_objects.htm'
p2308
aS'http://www.tutorialspoint.com/python/python_files_io.htm'
p2309
aS'http://www.tutorialspoint.com/python/python_gui_programming.htm'
p2310
aS'http://www.crummy.com/software/BeautifulSoup/bs3/documentation.html#Parsing%20XML'
p2311
aS'http://www.thegeekstuff.com/2014/08/parse-text-file-using-python/'
p2312
aS'http://people.duke.edu/~ccc14/sta-663/index.html'
p2313
aS'http://jyotiska.github.io/blog/posts/python_libraries.html'
p2314
aS'http://www.huyng.com/posts/python-performance-analysis/'
p2315
aS'http://thecodeship.com/patterns/guide-to-python-function-decorators/'
p2316
aS'http://www.cherrypy.org/'
p2317
aS'http://coala-analyzer.org/'
p2318
aS'http://www.tutorialspoint.com/python/python_reg_expressions.htm'
p2319
aS'http://wescpy.blogspot.com/'
p2320
aS'http://blog.webhose.io/2015/08/16/dead-simple-for-devs-python-crawler-script-for-extracting-structured-data-from-any-almost-website-into-csv/'
p2321
aS'http://www.web2py.com/demo_app1/default/index'
p2322
aS'http://orange.biolab.si/download/'
p2323
aS'http://stackoverflow.com/questions/16698935/how-to-transform-an-xml-file-using-xslt-in-python'
p2324
aS'https://www.libsdl.org/projects/'
p2325
aS'http://pytest.org/latest/getting-started.html'
p2326
aS'http://learnpythonthehardway.org/book/intro.html'
p2327
aS'http://jinja.pocoo.org/'
p2328
aS'http://www.pyzo.org/iep.html'
p2329
aS'http://docs.activestate.com/activepython/3.2/diveintopython3/html/special-method-names.html'
p2330
aS'http://www.w3schools.com/svg/'
p2331
aS'http://pythonthusiast.pythonblogs.com/230_pythonthusiast/archive/1347_starting_to_use_kivy__developing_letter_of_heroes_an_android_alphabet_teaching_aid_for_kids_part_2_of_2.html'
p2332
aS'http://pymotw.com/2/index.html'
p2333
aS'http://strftime.org/'
p2334
aS'http://www.jeffknupp.com/blog/2013/08/16/open-sourcing-a-python-project-the-right-way/'
p2335
aS'http://www.parallelpython.com/'
p2336
aS'http://java.dzone.com/articles/python-201-decorators'
p2337
aS'http://norvig.com/python-iaq.html'
p2338
aS'https://www.google.com/search?q=python+inference+engine&sourceid=ie7&rls=com.microsoft:en-us:IE-SearchBox&ie=&oe='
p2339
aS'http://stackoverflow.com/questions/147741/character-reading-from-file-in-python'
p2340
aS'https://taoofmac.com/space/blog/2013/08/11/2300'
p2341
aS'http://www.java2s.com/Tutorial/Python/CatalogPython.htm'
p2342
aS'http://multithreaded.stitchfix.com/blog/2015/07/16/pyxley/'
p2343
aS'http://fgimian.github.io/blog/2012/12/08/setting-up-virtual-development-environments-for-python/'
p2344
aS'http://www.aa6e.net/wiki/Software_Projects'
p2345
aS'http://blog.miguelgrinberg.com/post/the-flask-mega-tutorial-part-ii-templates'
p2346
aS'http://python-3-patterns-idioms-test.readthedocs.org/en/latest/UnitTesting.html'
p2347
aS'https://jenkins-ci.org/'
p2348
aS'http://www.zilogic.com/blog/tutorial-pyserial.html'
p2349
aS'http://wiki.micropython.org/Home'
p2350
aS'http://wiki.micropython.org/Home'
p2351
aS'https://chrome.google.com/webstore/category/extensions'
p2352
aS'http://docs.opencv.org/3.1.0/#gsc.tab=0'
p2353
a.