(lp0
S'Disney'
p1
aS'http://disney.es/'
p2
aS'http://www.rundisney.com/'
p3
aS'https://www.espnwwos.com/'
p4
aS'http://www.disneyyouth.com/'
p5
aS'https://www.disneyweddings.com/'
p6
aS'http://disneyweddings.disney.go.com/honeymoons'
p7
aS'http://www.disneygoldenoak.com/'
p8
aS'https://www.disneyweddings.com/engagements/'
p9
aS'https://www.disneydreamersacademy.com/'
p10
aS'http://www.disneyconventiontickets.com/'
p11
aS'http://mydisneydiscovery.com/'
p12
aS'https://www.disneymeetings.com/'
p13
aS'http://disney.com/'
p14
aS'http://disneyparks.disney.go.com/?DISCID=DI_mtt_chrome'
p15
aS'https://www.disneytravelagents.com/portal/site/dta-domestic'
p16
aS'http://disneyparks.disney.go.com/canada-language-selection/'
p17
aS'http://www.disneylandparis.com/en-us/'
p18
aS'http://thewaltdisneycompany.com/'
p19
aS'http://resorts.disney.go.com/'
p20
aS'http://help.disney.com/en_US/Marvel'
p21
aS'https://disneyland.disney.go.com/'
p22
aS'http://disney.pt/'
p23
aS'http://help.disney.com/en_US/Disney-Sites'
p24
aS'http://disney.co.uk/'
p25
aS'http://movies.disney.com/'
p26
aS'http://movies.disney.com/'
p27
aS'http://www.tokyodisneyresort.jp/en/'
p28
aS'https://www.hongkongdisneyland.com/'
p29
aS'http://disneyvacationclub.disney.go.com/'
p30
aS'http://www.waltdisney.org/'
p31
aS'http://thewaltdisneycompany.com/'
p32
aS'http://www.wdworld.com/'
p33
aS'http://princess.disney.com/'
p34
aS'https://disneyworld.disney.go.com/faq/'
p35
aS'http://www.studioscentral.com/'
p36
aS'http://disneycruise.disney.go.com/'
p37
aS'http://www.disneymovierewards.go.com/?cmp=SYN_DMC_HomeFooter'
p38
aS'http://help.disney.com/en_US/Games'
p39
aS'https://disneymovieclub.go.com/'
p40
aS'http://help.disney.com/en_US/Disney-Infinity'
p41
aS'http://help.disney.com/en_US/clubpenguin'
p42
aS'http://help.disney.com/en_US/Disney-Sites'
p43
aS'http://help.disney.com/en_US/Apps'
p44
a.